ARM GAS  C:\Users\Albert\AppData\Local\Temp\ccvryV5C.s 			page 1


   1              		.syntax unified
   2              		.cpu cortex-m3
   3              		.fpu softvfp
   4              		.eabi_attribute 20, 1
   5              		.eabi_attribute 21, 1
   6              		.eabi_attribute 23, 3
   7              		.eabi_attribute 24, 1
   8              		.eabi_attribute 25, 1
   9              		.eabi_attribute 26, 1
  10              		.eabi_attribute 30, 6
  11              		.eabi_attribute 34, 1
  12              		.eabi_attribute 18, 4
  13              		.thumb
  14              		.syntax unified
  15              		.file	"adc.c"
  16              		.text
  17              	.Ltext0:
  18              		.cfi_sections	.debug_frame
  19              		.section	.text.initADC,"ax",%progbits
  20              		.align	2
  21              		.global	initADC
  22              		.thumb
  23              		.thumb_func
  24              		.type	initADC, %function
  25              	initADC:
  26              	.LFB63:
  27              		.file 1 "adc.c"
   1:adc.c         **** /* ========================================
   2:adc.c         ****  *
   3:adc.c         ****  * Copyright Albert Wu, 2018
   4:adc.c         ****  * All Rights Reserved
   5:adc.c         ****  * UNPUBLISHED, LICENSED SOFTWARE.
   6:adc.c         ****  *
   7:adc.c         ****  * CONFIDENTIAL AND PROPRIETARY INFORMATION
   8:adc.c         ****  * WHICH IS THE PROPERTY OF your company.
   9:adc.c         ****  *
  10:adc.c         ****  * ========================================
  11:adc.c         **** */
  12:adc.c         **** #include "adc.h"
  13:adc.c         **** #include "mathUtility.h"
  14:adc.c         **** #include "hardwareParameters.h"
  15:adc.c         **** 
  16:adc.c         **** extern _Bool sampleADC;
  17:adc.c         **** 
  18:adc.c         **** void initADC()
  19:adc.c         **** {
  28              		.loc 1 19 0
  29              		.cfi_startproc
  30              		@ args = 0, pretend = 0, frame = 8
  31              		@ frame_needed = 1, uses_anonymous_args = 0
  32 0000 80B5     		push	{r7, lr}
  33              		.cfi_def_cfa_offset 8
  34              		.cfi_offset 7, -8
  35              		.cfi_offset 14, -4
  36 0002 82B0     		sub	sp, sp, #8
  37              		.cfi_def_cfa_offset 16
  38 0004 00AF     		add	r7, sp, #0
ARM GAS  C:\Users\Albert\AppData\Local\Temp\ccvryV5C.s 			page 2


  39              		.cfi_def_cfa_register 7
  20:adc.c         ****     //Initalizes ADCs
  21:adc.c         ****     ADC1_Start();
  40              		.loc 1 21 0
  41 0006 FFF7FEFF 		bl	ADC1_Start
  22:adc.c         ****     ADC1_StartConvert();
  42              		.loc 1 22 0
  43 000a FFF7FEFF 		bl	ADC1_StartConvert
  23:adc.c         ****     int offSet = getADCReading();
  44              		.loc 1 23 0
  45 000e FFF7FEFF 		bl	getADCReading
  46 0012 0346     		mov	r3, r0
  47 0014 7B60     		str	r3, [r7, #4]
  24:adc.c         ****     ADC1_SetOffset(offSet);
  48              		.loc 1 24 0
  49 0016 7B68     		ldr	r3, [r7, #4]
  50 0018 1BB2     		sxth	r3, r3
  51 001a 1846     		mov	r0, r3
  52 001c FFF7FEFF 		bl	ADC1_SetOffset
  25:adc.c         **** }
  53              		.loc 1 25 0
  54 0020 00BF     		nop
  55 0022 0837     		adds	r7, r7, #8
  56              		.cfi_def_cfa_offset 8
  57 0024 BD46     		mov	sp, r7
  58              		.cfi_def_cfa_register 13
  59              		@ sp needed
  60 0026 80BD     		pop	{r7, pc}
  61              		.cfi_endproc
  62              	.LFE63:
  63              		.size	initADC, .-initADC
  64              		.section	.text.getADCReading,"ax",%progbits
  65              		.align	2
  66              		.global	getADCReading
  67              		.thumb
  68              		.thumb_func
  69              		.type	getADCReading, %function
  70              	getADCReading:
  71              	.LFB64:
  26:adc.c         **** 
  27:adc.c         **** int16 getADCReading()
  28:adc.c         **** {   
  72              		.loc 1 28 0
  73              		.cfi_startproc
  74              		@ args = 0, pretend = 0, frame = 8
  75              		@ frame_needed = 1, uses_anonymous_args = 0
  76 0000 80B5     		push	{r7, lr}
  77              		.cfi_def_cfa_offset 8
  78              		.cfi_offset 7, -8
  79              		.cfi_offset 14, -4
  80 0002 82B0     		sub	sp, sp, #8
  81              		.cfi_def_cfa_offset 16
  82 0004 00AF     		add	r7, sp, #0
  83              		.cfi_def_cfa_register 7
  29:adc.c         ****     int sum = 0;
  84              		.loc 1 29 0
  85 0006 0023     		movs	r3, #0
ARM GAS  C:\Users\Albert\AppData\Local\Temp\ccvryV5C.s 			page 3


  86 0008 7B60     		str	r3, [r7, #4]
  30:adc.c         ****     int i = 0;
  87              		.loc 1 30 0
  88 000a 0023     		movs	r3, #0
  89 000c 3B60     		str	r3, [r7]
  31:adc.c         ****     while(i<ADC_SAMPLES)
  90              		.loc 1 31 0
  91 000e 10E0     		b	.L3
  92              	.L4:
  32:adc.c         ****     {
  33:adc.c         ****         if(sampleADC)
  93              		.loc 1 33 0
  94 0010 104B     		ldr	r3, .L6
  95 0012 1B78     		ldrb	r3, [r3]	@ zero_extendqisi2
  96 0014 002B     		cmp	r3, #0
  97 0016 0CD0     		beq	.L3
  34:adc.c         ****         {
  35:adc.c         ****             sum+=ADC1_GetResult16();
  98              		.loc 1 35 0
  99 0018 FFF7FEFF 		bl	ADC1_GetResult16
 100 001c 0346     		mov	r3, r0
 101 001e 1A46     		mov	r2, r3
 102 0020 7B68     		ldr	r3, [r7, #4]
 103 0022 1344     		add	r3, r3, r2
 104 0024 7B60     		str	r3, [r7, #4]
  36:adc.c         ****             i++;
 105              		.loc 1 36 0
 106 0026 3B68     		ldr	r3, [r7]
 107 0028 0133     		adds	r3, r3, #1
 108 002a 3B60     		str	r3, [r7]
  37:adc.c         ****             sampleADC=0;
 109              		.loc 1 37 0
 110 002c 094B     		ldr	r3, .L6
 111 002e 0022     		movs	r2, #0
 112 0030 1A70     		strb	r2, [r3]
 113              	.L3:
  31:adc.c         ****     {
 114              		.loc 1 31 0
 115 0032 3B68     		ldr	r3, [r7]
 116 0034 632B     		cmp	r3, #99
 117 0036 EBDD     		ble	.L4
  38:adc.c         ****         }
  39:adc.c         ****     }
  40:adc.c         ****     sum/=ADC_SAMPLES;
 118              		.loc 1 40 0
 119 0038 7B68     		ldr	r3, [r7, #4]
 120 003a 074A     		ldr	r2, .L6+4
 121 003c 82FB0312 		smull	r1, r2, r2, r3
 122 0040 5211     		asrs	r2, r2, #5
 123 0042 DB17     		asrs	r3, r3, #31
 124 0044 D31A     		subs	r3, r2, r3
 125 0046 7B60     		str	r3, [r7, #4]
  41:adc.c         ****     return sum;
 126              		.loc 1 41 0
 127 0048 7B68     		ldr	r3, [r7, #4]
 128 004a 1BB2     		sxth	r3, r3
  42:adc.c         **** }
ARM GAS  C:\Users\Albert\AppData\Local\Temp\ccvryV5C.s 			page 4


 129              		.loc 1 42 0
 130 004c 1846     		mov	r0, r3
 131 004e 0837     		adds	r7, r7, #8
 132              		.cfi_def_cfa_offset 8
 133 0050 BD46     		mov	sp, r7
 134              		.cfi_def_cfa_register 13
 135              		@ sp needed
 136 0052 80BD     		pop	{r7, pc}
 137              	.L7:
 138              		.align	2
 139              	.L6:
 140 0054 00000000 		.word	sampleADC
 141 0058 1F85EB51 		.word	1374389535
 142              		.cfi_endproc
 143              	.LFE64:
 144              		.size	getADCReading, .-getADCReading
 145              		.global	__aeabi_ddiv
 146              		.section	.text.getCurrent,"ax",%progbits
 147              		.align	2
 148              		.global	getCurrent
 149              		.thumb
 150              		.thumb_func
 151              		.type	getCurrent, %function
 152              	getCurrent:
 153              	.LFB65:
  43:adc.c         **** 
  44:adc.c         **** double getCurrent()
  45:adc.c         **** {   
 154              		.loc 1 45 0
 155              		.cfi_startproc
 156              		@ args = 0, pretend = 0, frame = 0
 157              		@ frame_needed = 1, uses_anonymous_args = 0
 158 0000 98B5     		push	{r3, r4, r7, lr}
 159              		.cfi_def_cfa_offset 16
 160              		.cfi_offset 3, -16
 161              		.cfi_offset 4, -12
 162              		.cfi_offset 7, -8
 163              		.cfi_offset 14, -4
 164 0002 00AF     		add	r7, sp, #0
 165              		.cfi_def_cfa_register 7
  46:adc.c         ****     //Order to be confirmed
  47:adc.c         ****     return ADC1_CountsTo_Volts(getADCReading())*ADC_V_TO_I;
 166              		.loc 1 47 0
 167 0004 FFF7FEFF 		bl	getADCReading
 168 0008 0346     		mov	r3, r0
 169 000a 1846     		mov	r0, r3
 170 000c FFF7FEFF 		bl	ADC1_CountsTo_Volts
 171 0010 05A3     		adr	r3, .L10
 172 0012 D3E90023 		ldrd	r2, [r3]
 173 0016 FFF7FEFF 		bl	__aeabi_ddiv
 174 001a 0346     		mov	r3, r0
 175 001c 0C46     		mov	r4, r1
  48:adc.c         **** }
 176              		.loc 1 48 0
 177 001e 1846     		mov	r0, r3
 178 0020 2146     		mov	r1, r4
 179 0022 98BD     		pop	{r3, r4, r7, pc}
ARM GAS  C:\Users\Albert\AppData\Local\Temp\ccvryV5C.s 			page 5


 180              	.L11:
 181 0024 AFF30080 		.align	3
 182              	.L10:
 183 0028 B0726891 		.word	-1855425872
 184 002c ED7CCF3F 		.word	1070562541
 185              		.cfi_endproc
 186              	.LFE65:
 187              		.size	getCurrent, .-getCurrent
 188              		.global	__aeabi_dmul
 189              		.section	.text.getTorque,"ax",%progbits
 190              		.align	2
 191              		.global	getTorque
 192              		.thumb
 193              		.thumb_func
 194              		.type	getTorque, %function
 195              	getTorque:
 196              	.LFB66:
  49:adc.c         **** 
  50:adc.c         **** double getTorque()
  51:adc.c         **** {
 197              		.loc 1 51 0
 198              		.cfi_startproc
 199              		@ args = 0, pretend = 0, frame = 0
 200              		@ frame_needed = 1, uses_anonymous_args = 0
 201 0000 98B5     		push	{r3, r4, r7, lr}
 202              		.cfi_def_cfa_offset 16
 203              		.cfi_offset 3, -16
 204              		.cfi_offset 4, -12
 205              		.cfi_offset 7, -8
 206              		.cfi_offset 14, -4
 207 0002 00AF     		add	r7, sp, #0
 208              		.cfi_def_cfa_register 7
  52:adc.c         ****     return getCurrent()*MOTOR_K_T;
 209              		.loc 1 52 0
 210 0004 FFF7FEFF 		bl	getCurrent
 211 0008 05A3     		adr	r3, .L14
 212 000a D3E90023 		ldrd	r2, [r3]
 213 000e FFF7FEFF 		bl	__aeabi_dmul
 214 0012 0346     		mov	r3, r0
 215 0014 0C46     		mov	r4, r1
  53:adc.c         **** }
 216              		.loc 1 53 0
 217 0016 1846     		mov	r0, r3
 218 0018 2146     		mov	r1, r4
 219 001a 98BD     		pop	{r3, r4, r7, pc}
 220              	.L15:
 221 001c AFF30080 		.align	3
 222              	.L14:
 223 0020 E86A2BF6 		.word	-164926744
 224 0024 97DD833F 		.word	1065606551
 225              		.cfi_endproc
 226              	.LFE66:
 227              		.size	getTorque, .-getTorque
 228              		.text
 229              	.Letext0:
 230              		.file 2 "c:\\program files (x86)\\cypress\\psoc creator\\4.2\\psoc creator\\import\\gnu\\arm\\5.4.
 231              		.file 3 "c:\\program files (x86)\\cypress\\psoc creator\\4.2\\psoc creator\\import\\gnu\\arm\\5.4.
ARM GAS  C:\Users\Albert\AppData\Local\Temp\ccvryV5C.s 			page 6


 232              		.file 4 "Generated_Source\\PSoC5/cytypes.h"
 233              		.file 5 "Generated_Source\\PSoC5/core_cm3.h"