ARM GAS  C:\Users\Albert\AppData\Local\Temp\ccddJQue.s 			page 1


   1              		.syntax unified
   2              		.cpu cortex-m3
   3              		.fpu softvfp
   4              		.eabi_attribute 20, 1
   5              		.eabi_attribute 21, 1
   6              		.eabi_attribute 23, 3
   7              		.eabi_attribute 24, 1
   8              		.eabi_attribute 25, 1
   9              		.eabi_attribute 26, 1
  10              		.eabi_attribute 30, 6
  11              		.eabi_attribute 34, 1
  12              		.eabi_attribute 18, 4
  13              		.thumb
  14              		.syntax unified
  15              		.file	"ADC1_IRQ.c"
  16              		.text
  17              	.Ltext0:
  18              		.cfi_sections	.debug_frame
  19              		.section	.text.ADC1_IRQ_Start,"ax",%progbits
  20              		.align	2
  21              		.global	ADC1_IRQ_Start
  22              		.thumb
  23              		.thumb_func
  24              		.type	ADC1_IRQ_Start, %function
  25              	ADC1_IRQ_Start:
  26              	.LFB0:
  27              		.file 1 "Generated_Source\\PSoC5\\ADC1_IRQ.c"
   1:Generated_Source\PSoC5/ADC1_IRQ.c **** /*******************************************************************************
   2:Generated_Source\PSoC5/ADC1_IRQ.c **** * File Name: ADC1_IRQ.c  
   3:Generated_Source\PSoC5/ADC1_IRQ.c **** * Version 1.70
   4:Generated_Source\PSoC5/ADC1_IRQ.c **** *
   5:Generated_Source\PSoC5/ADC1_IRQ.c **** *  Description:
   6:Generated_Source\PSoC5/ADC1_IRQ.c **** *   API for controlling the state of an interrupt.
   7:Generated_Source\PSoC5/ADC1_IRQ.c **** *
   8:Generated_Source\PSoC5/ADC1_IRQ.c **** *
   9:Generated_Source\PSoC5/ADC1_IRQ.c **** *  Note:
  10:Generated_Source\PSoC5/ADC1_IRQ.c **** *
  11:Generated_Source\PSoC5/ADC1_IRQ.c **** ********************************************************************************
  12:Generated_Source\PSoC5/ADC1_IRQ.c **** * Copyright 2008-2015, Cypress Semiconductor Corporation.  All rights reserved.
  13:Generated_Source\PSoC5/ADC1_IRQ.c **** * You may use this file only in accordance with the license, terms, conditions, 
  14:Generated_Source\PSoC5/ADC1_IRQ.c **** * disclaimers, and limitations in the end user license agreement accompanying 
  15:Generated_Source\PSoC5/ADC1_IRQ.c **** * the software package with which this file was provided.
  16:Generated_Source\PSoC5/ADC1_IRQ.c **** *******************************************************************************/
  17:Generated_Source\PSoC5/ADC1_IRQ.c **** 
  18:Generated_Source\PSoC5/ADC1_IRQ.c **** 
  19:Generated_Source\PSoC5/ADC1_IRQ.c **** #include <cydevice_trm.h>
  20:Generated_Source\PSoC5/ADC1_IRQ.c **** #include <CyLib.h>
  21:Generated_Source\PSoC5/ADC1_IRQ.c **** #include <ADC1_IRQ.h>
  22:Generated_Source\PSoC5/ADC1_IRQ.c **** 
  23:Generated_Source\PSoC5/ADC1_IRQ.c **** 
  24:Generated_Source\PSoC5/ADC1_IRQ.c **** #if !defined(ADC1_IRQ__REMOVED) /* Check for removal by optimization */
  25:Generated_Source\PSoC5/ADC1_IRQ.c **** 
  26:Generated_Source\PSoC5/ADC1_IRQ.c **** /*******************************************************************************
  27:Generated_Source\PSoC5/ADC1_IRQ.c **** *  Place your includes, defines and code here 
  28:Generated_Source\PSoC5/ADC1_IRQ.c **** ********************************************************************************/
  29:Generated_Source\PSoC5/ADC1_IRQ.c **** /* `#START ADC1_IRQ_intc` */
  30:Generated_Source\PSoC5/ADC1_IRQ.c **** 
ARM GAS  C:\Users\Albert\AppData\Local\Temp\ccddJQue.s 			page 2


  31:Generated_Source\PSoC5/ADC1_IRQ.c **** /* `#END` */
  32:Generated_Source\PSoC5/ADC1_IRQ.c **** 
  33:Generated_Source\PSoC5/ADC1_IRQ.c **** #ifndef CYINT_IRQ_BASE
  34:Generated_Source\PSoC5/ADC1_IRQ.c **** #define CYINT_IRQ_BASE      16
  35:Generated_Source\PSoC5/ADC1_IRQ.c **** #endif /* CYINT_IRQ_BASE */
  36:Generated_Source\PSoC5/ADC1_IRQ.c **** #ifndef CYINT_VECT_TABLE
  37:Generated_Source\PSoC5/ADC1_IRQ.c **** #define CYINT_VECT_TABLE    ((cyisraddress **) CYREG_NVIC_VECT_OFFSET)
  38:Generated_Source\PSoC5/ADC1_IRQ.c **** #endif /* CYINT_VECT_TABLE */
  39:Generated_Source\PSoC5/ADC1_IRQ.c **** 
  40:Generated_Source\PSoC5/ADC1_IRQ.c **** /* Declared in startup, used to set unused interrupts to. */
  41:Generated_Source\PSoC5/ADC1_IRQ.c **** CY_ISR_PROTO(IntDefaultHandler);
  42:Generated_Source\PSoC5/ADC1_IRQ.c **** 
  43:Generated_Source\PSoC5/ADC1_IRQ.c **** 
  44:Generated_Source\PSoC5/ADC1_IRQ.c **** /*******************************************************************************
  45:Generated_Source\PSoC5/ADC1_IRQ.c **** * Function Name: ADC1_IRQ_Start
  46:Generated_Source\PSoC5/ADC1_IRQ.c **** ********************************************************************************
  47:Generated_Source\PSoC5/ADC1_IRQ.c **** *
  48:Generated_Source\PSoC5/ADC1_IRQ.c **** * Summary:
  49:Generated_Source\PSoC5/ADC1_IRQ.c **** *  Set up the interrupt and enable it. This function disables the interrupt, 
  50:Generated_Source\PSoC5/ADC1_IRQ.c **** *  sets the default interrupt vector, sets the priority from the value in the
  51:Generated_Source\PSoC5/ADC1_IRQ.c **** *  Design Wide Resources Interrupt Editor, then enables the interrupt to the 
  52:Generated_Source\PSoC5/ADC1_IRQ.c **** *  interrupt controller.
  53:Generated_Source\PSoC5/ADC1_IRQ.c **** *
  54:Generated_Source\PSoC5/ADC1_IRQ.c **** * Parameters:  
  55:Generated_Source\PSoC5/ADC1_IRQ.c **** *   None
  56:Generated_Source\PSoC5/ADC1_IRQ.c **** *
  57:Generated_Source\PSoC5/ADC1_IRQ.c **** * Return:
  58:Generated_Source\PSoC5/ADC1_IRQ.c **** *   None
  59:Generated_Source\PSoC5/ADC1_IRQ.c **** *
  60:Generated_Source\PSoC5/ADC1_IRQ.c **** *******************************************************************************/
  61:Generated_Source\PSoC5/ADC1_IRQ.c **** void ADC1_IRQ_Start(void)
  62:Generated_Source\PSoC5/ADC1_IRQ.c **** {
  28              		.loc 1 62 0
  29              		.cfi_startproc
  30              		@ args = 0, pretend = 0, frame = 0
  31              		@ frame_needed = 1, uses_anonymous_args = 0
  32 0000 80B5     		push	{r7, lr}
  33              		.cfi_def_cfa_offset 8
  34              		.cfi_offset 7, -8
  35              		.cfi_offset 14, -4
  36 0002 00AF     		add	r7, sp, #0
  37              		.cfi_def_cfa_register 7
  63:Generated_Source\PSoC5/ADC1_IRQ.c ****     /* For all we know the interrupt is active. */
  64:Generated_Source\PSoC5/ADC1_IRQ.c ****     ADC1_IRQ_Disable();
  38              		.loc 1 64 0
  39 0004 FFF7FEFF 		bl	ADC1_IRQ_Disable
  65:Generated_Source\PSoC5/ADC1_IRQ.c **** 
  66:Generated_Source\PSoC5/ADC1_IRQ.c ****     /* Set the ISR to point to the ADC1_IRQ Interrupt. */
  67:Generated_Source\PSoC5/ADC1_IRQ.c ****     ADC1_IRQ_SetVector(&ADC1_IRQ_Interrupt);
  40              		.loc 1 67 0
  41 0008 0448     		ldr	r0, .L2
  42 000a FFF7FEFF 		bl	ADC1_IRQ_SetVector
  68:Generated_Source\PSoC5/ADC1_IRQ.c **** 
  69:Generated_Source\PSoC5/ADC1_IRQ.c ****     /* Set the priority. */
  70:Generated_Source\PSoC5/ADC1_IRQ.c ****     ADC1_IRQ_SetPriority((uint8)ADC1_IRQ_INTC_PRIOR_NUMBER);
  43              		.loc 1 70 0
  44 000e 0720     		movs	r0, #7
ARM GAS  C:\Users\Albert\AppData\Local\Temp\ccddJQue.s 			page 3


  45 0010 FFF7FEFF 		bl	ADC1_IRQ_SetPriority
  71:Generated_Source\PSoC5/ADC1_IRQ.c **** 
  72:Generated_Source\PSoC5/ADC1_IRQ.c ****     /* Enable it. */
  73:Generated_Source\PSoC5/ADC1_IRQ.c ****     ADC1_IRQ_Enable();
  46              		.loc 1 73 0
  47 0014 FFF7FEFF 		bl	ADC1_IRQ_Enable
  74:Generated_Source\PSoC5/ADC1_IRQ.c **** }
  48              		.loc 1 74 0
  49 0018 00BF     		nop
  50 001a 80BD     		pop	{r7, pc}
  51              	.L3:
  52              		.align	2
  53              	.L2:
  54 001c 00000000 		.word	ADC1_IRQ_Interrupt
  55              		.cfi_endproc
  56              	.LFE0:
  57              		.size	ADC1_IRQ_Start, .-ADC1_IRQ_Start
  58              		.section	.text.ADC1_IRQ_StartEx,"ax",%progbits
  59              		.align	2
  60              		.global	ADC1_IRQ_StartEx
  61              		.thumb
  62              		.thumb_func
  63              		.type	ADC1_IRQ_StartEx, %function
  64              	ADC1_IRQ_StartEx:
  65              	.LFB1:
  75:Generated_Source\PSoC5/ADC1_IRQ.c **** 
  76:Generated_Source\PSoC5/ADC1_IRQ.c **** 
  77:Generated_Source\PSoC5/ADC1_IRQ.c **** /*******************************************************************************
  78:Generated_Source\PSoC5/ADC1_IRQ.c **** * Function Name: ADC1_IRQ_StartEx
  79:Generated_Source\PSoC5/ADC1_IRQ.c **** ********************************************************************************
  80:Generated_Source\PSoC5/ADC1_IRQ.c **** *
  81:Generated_Source\PSoC5/ADC1_IRQ.c **** * Summary:
  82:Generated_Source\PSoC5/ADC1_IRQ.c **** *  Sets up the interrupt and enables it. This function disables the interrupt,
  83:Generated_Source\PSoC5/ADC1_IRQ.c **** *  sets the interrupt vector based on the address passed in, sets the priority 
  84:Generated_Source\PSoC5/ADC1_IRQ.c **** *  from the value in the Design Wide Resources Interrupt Editor, then enables 
  85:Generated_Source\PSoC5/ADC1_IRQ.c **** *  the interrupt to the interrupt controller.
  86:Generated_Source\PSoC5/ADC1_IRQ.c **** *  
  87:Generated_Source\PSoC5/ADC1_IRQ.c **** *  When defining ISR functions, the CY_ISR and CY_ISR_PROTO macros should be 
  88:Generated_Source\PSoC5/ADC1_IRQ.c **** *  used to provide consistent definition across compilers:
  89:Generated_Source\PSoC5/ADC1_IRQ.c **** *  
  90:Generated_Source\PSoC5/ADC1_IRQ.c **** *  Function definition example:
  91:Generated_Source\PSoC5/ADC1_IRQ.c **** *   CY_ISR(MyISR)
  92:Generated_Source\PSoC5/ADC1_IRQ.c **** *   {
  93:Generated_Source\PSoC5/ADC1_IRQ.c **** *   }
  94:Generated_Source\PSoC5/ADC1_IRQ.c **** *   Function prototype example:
  95:Generated_Source\PSoC5/ADC1_IRQ.c **** *   CY_ISR_PROTO(MyISR);
  96:Generated_Source\PSoC5/ADC1_IRQ.c **** *
  97:Generated_Source\PSoC5/ADC1_IRQ.c **** * Parameters:  
  98:Generated_Source\PSoC5/ADC1_IRQ.c **** *   address: Address of the ISR to set in the interrupt vector table.
  99:Generated_Source\PSoC5/ADC1_IRQ.c **** *
 100:Generated_Source\PSoC5/ADC1_IRQ.c **** * Return:
 101:Generated_Source\PSoC5/ADC1_IRQ.c **** *   None
 102:Generated_Source\PSoC5/ADC1_IRQ.c **** *
 103:Generated_Source\PSoC5/ADC1_IRQ.c **** *******************************************************************************/
 104:Generated_Source\PSoC5/ADC1_IRQ.c **** void ADC1_IRQ_StartEx(cyisraddress address)
 105:Generated_Source\PSoC5/ADC1_IRQ.c **** {
  66              		.loc 1 105 0
ARM GAS  C:\Users\Albert\AppData\Local\Temp\ccddJQue.s 			page 4


  67              		.cfi_startproc
  68              		@ args = 0, pretend = 0, frame = 8
  69              		@ frame_needed = 1, uses_anonymous_args = 0
  70 0000 80B5     		push	{r7, lr}
  71              		.cfi_def_cfa_offset 8
  72              		.cfi_offset 7, -8
  73              		.cfi_offset 14, -4
  74 0002 82B0     		sub	sp, sp, #8
  75              		.cfi_def_cfa_offset 16
  76 0004 00AF     		add	r7, sp, #0
  77              		.cfi_def_cfa_register 7
  78 0006 7860     		str	r0, [r7, #4]
 106:Generated_Source\PSoC5/ADC1_IRQ.c ****     /* For all we know the interrupt is active. */
 107:Generated_Source\PSoC5/ADC1_IRQ.c ****     ADC1_IRQ_Disable();
  79              		.loc 1 107 0
  80 0008 FFF7FEFF 		bl	ADC1_IRQ_Disable
 108:Generated_Source\PSoC5/ADC1_IRQ.c **** 
 109:Generated_Source\PSoC5/ADC1_IRQ.c ****     /* Set the ISR to point to the ADC1_IRQ Interrupt. */
 110:Generated_Source\PSoC5/ADC1_IRQ.c ****     ADC1_IRQ_SetVector(address);
  81              		.loc 1 110 0
  82 000c 7868     		ldr	r0, [r7, #4]
  83 000e FFF7FEFF 		bl	ADC1_IRQ_SetVector
 111:Generated_Source\PSoC5/ADC1_IRQ.c **** 
 112:Generated_Source\PSoC5/ADC1_IRQ.c ****     /* Set the priority. */
 113:Generated_Source\PSoC5/ADC1_IRQ.c ****     ADC1_IRQ_SetPriority((uint8)ADC1_IRQ_INTC_PRIOR_NUMBER);
  84              		.loc 1 113 0
  85 0012 0720     		movs	r0, #7
  86 0014 FFF7FEFF 		bl	ADC1_IRQ_SetPriority
 114:Generated_Source\PSoC5/ADC1_IRQ.c **** 
 115:Generated_Source\PSoC5/ADC1_IRQ.c ****     /* Enable it. */
 116:Generated_Source\PSoC5/ADC1_IRQ.c ****     ADC1_IRQ_Enable();
  87              		.loc 1 116 0
  88 0018 FFF7FEFF 		bl	ADC1_IRQ_Enable
 117:Generated_Source\PSoC5/ADC1_IRQ.c **** }
  89              		.loc 1 117 0
  90 001c 00BF     		nop
  91 001e 0837     		adds	r7, r7, #8
  92              		.cfi_def_cfa_offset 8
  93 0020 BD46     		mov	sp, r7
  94              		.cfi_def_cfa_register 13
  95              		@ sp needed
  96 0022 80BD     		pop	{r7, pc}
  97              		.cfi_endproc
  98              	.LFE1:
  99              		.size	ADC1_IRQ_StartEx, .-ADC1_IRQ_StartEx
 100              		.section	.text.ADC1_IRQ_Stop,"ax",%progbits
 101              		.align	2
 102              		.global	ADC1_IRQ_Stop
 103              		.thumb
 104              		.thumb_func
 105              		.type	ADC1_IRQ_Stop, %function
 106              	ADC1_IRQ_Stop:
 107              	.LFB2:
 118:Generated_Source\PSoC5/ADC1_IRQ.c **** 
 119:Generated_Source\PSoC5/ADC1_IRQ.c **** 
 120:Generated_Source\PSoC5/ADC1_IRQ.c **** /*******************************************************************************
 121:Generated_Source\PSoC5/ADC1_IRQ.c **** * Function Name: ADC1_IRQ_Stop
ARM GAS  C:\Users\Albert\AppData\Local\Temp\ccddJQue.s 			page 5


 122:Generated_Source\PSoC5/ADC1_IRQ.c **** ********************************************************************************
 123:Generated_Source\PSoC5/ADC1_IRQ.c **** *
 124:Generated_Source\PSoC5/ADC1_IRQ.c **** * Summary:
 125:Generated_Source\PSoC5/ADC1_IRQ.c **** *   Disables and removes the interrupt.
 126:Generated_Source\PSoC5/ADC1_IRQ.c **** *
 127:Generated_Source\PSoC5/ADC1_IRQ.c **** * Parameters:  
 128:Generated_Source\PSoC5/ADC1_IRQ.c **** *   None
 129:Generated_Source\PSoC5/ADC1_IRQ.c **** *
 130:Generated_Source\PSoC5/ADC1_IRQ.c **** * Return:
 131:Generated_Source\PSoC5/ADC1_IRQ.c **** *   None
 132:Generated_Source\PSoC5/ADC1_IRQ.c **** *
 133:Generated_Source\PSoC5/ADC1_IRQ.c **** *******************************************************************************/
 134:Generated_Source\PSoC5/ADC1_IRQ.c **** void ADC1_IRQ_Stop(void)
 135:Generated_Source\PSoC5/ADC1_IRQ.c **** {
 108              		.loc 1 135 0
 109              		.cfi_startproc
 110              		@ args = 0, pretend = 0, frame = 0
 111              		@ frame_needed = 1, uses_anonymous_args = 0
 112 0000 80B5     		push	{r7, lr}
 113              		.cfi_def_cfa_offset 8
 114              		.cfi_offset 7, -8
 115              		.cfi_offset 14, -4
 116 0002 00AF     		add	r7, sp, #0
 117              		.cfi_def_cfa_register 7
 136:Generated_Source\PSoC5/ADC1_IRQ.c ****     /* Disable this interrupt. */
 137:Generated_Source\PSoC5/ADC1_IRQ.c ****     ADC1_IRQ_Disable();
 118              		.loc 1 137 0
 119 0004 FFF7FEFF 		bl	ADC1_IRQ_Disable
 138:Generated_Source\PSoC5/ADC1_IRQ.c **** 
 139:Generated_Source\PSoC5/ADC1_IRQ.c ****     /* Set the ISR to point to the passive one. */
 140:Generated_Source\PSoC5/ADC1_IRQ.c ****     ADC1_IRQ_SetVector(&IntDefaultHandler);
 120              		.loc 1 140 0
 121 0008 0248     		ldr	r0, .L6
 122 000a FFF7FEFF 		bl	ADC1_IRQ_SetVector
 141:Generated_Source\PSoC5/ADC1_IRQ.c **** }
 123              		.loc 1 141 0
 124 000e 00BF     		nop
 125 0010 80BD     		pop	{r7, pc}
 126              	.L7:
 127 0012 00BF     		.align	2
 128              	.L6:
 129 0014 00000000 		.word	IntDefaultHandler
 130              		.cfi_endproc
 131              	.LFE2:
 132              		.size	ADC1_IRQ_Stop, .-ADC1_IRQ_Stop
 133              		.section	.text.ADC1_IRQ_Interrupt,"ax",%progbits
 134              		.align	2
 135              		.global	ADC1_IRQ_Interrupt
 136              		.thumb
 137              		.thumb_func
 138              		.type	ADC1_IRQ_Interrupt, %function
 139              	ADC1_IRQ_Interrupt:
 140              	.LFB3:
 142:Generated_Source\PSoC5/ADC1_IRQ.c **** 
 143:Generated_Source\PSoC5/ADC1_IRQ.c **** 
 144:Generated_Source\PSoC5/ADC1_IRQ.c **** /*******************************************************************************
 145:Generated_Source\PSoC5/ADC1_IRQ.c **** * Function Name: ADC1_IRQ_Interrupt
ARM GAS  C:\Users\Albert\AppData\Local\Temp\ccddJQue.s 			page 6


 146:Generated_Source\PSoC5/ADC1_IRQ.c **** ********************************************************************************
 147:Generated_Source\PSoC5/ADC1_IRQ.c **** *
 148:Generated_Source\PSoC5/ADC1_IRQ.c **** * Summary:
 149:Generated_Source\PSoC5/ADC1_IRQ.c **** *   The default Interrupt Service Routine for ADC1_IRQ.
 150:Generated_Source\PSoC5/ADC1_IRQ.c **** *
 151:Generated_Source\PSoC5/ADC1_IRQ.c **** *   Add custom code between the coments to keep the next version of this file
 152:Generated_Source\PSoC5/ADC1_IRQ.c **** *   from over writting your code.
 153:Generated_Source\PSoC5/ADC1_IRQ.c **** *
 154:Generated_Source\PSoC5/ADC1_IRQ.c **** * Parameters:  
 155:Generated_Source\PSoC5/ADC1_IRQ.c **** *
 156:Generated_Source\PSoC5/ADC1_IRQ.c **** * Return:
 157:Generated_Source\PSoC5/ADC1_IRQ.c **** *   None
 158:Generated_Source\PSoC5/ADC1_IRQ.c **** *
 159:Generated_Source\PSoC5/ADC1_IRQ.c **** *******************************************************************************/
 160:Generated_Source\PSoC5/ADC1_IRQ.c **** CY_ISR(ADC1_IRQ_Interrupt)
 161:Generated_Source\PSoC5/ADC1_IRQ.c **** {
 141              		.loc 1 161 0
 142              		.cfi_startproc
 143              		@ args = 0, pretend = 0, frame = 0
 144              		@ frame_needed = 1, uses_anonymous_args = 0
 145              		@ link register save eliminated.
 146 0000 80B4     		push	{r7}
 147              		.cfi_def_cfa_offset 4
 148              		.cfi_offset 7, -4
 149 0002 00AF     		add	r7, sp, #0
 150              		.cfi_def_cfa_register 7
 162:Generated_Source\PSoC5/ADC1_IRQ.c ****     #ifdef ADC1_IRQ_INTERRUPT_INTERRUPT_CALLBACK
 163:Generated_Source\PSoC5/ADC1_IRQ.c ****         ADC1_IRQ_Interrupt_InterruptCallback();
 164:Generated_Source\PSoC5/ADC1_IRQ.c ****     #endif /* ADC1_IRQ_INTERRUPT_INTERRUPT_CALLBACK */ 
 165:Generated_Source\PSoC5/ADC1_IRQ.c **** 
 166:Generated_Source\PSoC5/ADC1_IRQ.c ****     /*  Place your Interrupt code here. */
 167:Generated_Source\PSoC5/ADC1_IRQ.c ****     /* `#START ADC1_IRQ_Interrupt` */
 168:Generated_Source\PSoC5/ADC1_IRQ.c **** 
 169:Generated_Source\PSoC5/ADC1_IRQ.c ****     /* `#END` */
 170:Generated_Source\PSoC5/ADC1_IRQ.c **** }
 151              		.loc 1 170 0
 152 0004 00BF     		nop
 153 0006 BD46     		mov	sp, r7
 154              		.cfi_def_cfa_register 13
 155              		@ sp needed
 156 0008 80BC     		pop	{r7}
 157              		.cfi_restore 7
 158              		.cfi_def_cfa_offset 0
 159 000a 7047     		bx	lr
 160              		.cfi_endproc
 161              	.LFE3:
 162              		.size	ADC1_IRQ_Interrupt, .-ADC1_IRQ_Interrupt
 163              		.section	.text.ADC1_IRQ_SetVector,"ax",%progbits
 164              		.align	2
 165              		.global	ADC1_IRQ_SetVector
 166              		.thumb
 167              		.thumb_func
 168              		.type	ADC1_IRQ_SetVector, %function
 169              	ADC1_IRQ_SetVector:
 170              	.LFB4:
 171:Generated_Source\PSoC5/ADC1_IRQ.c **** 
 172:Generated_Source\PSoC5/ADC1_IRQ.c **** 
ARM GAS  C:\Users\Albert\AppData\Local\Temp\ccddJQue.s 			page 7


 173:Generated_Source\PSoC5/ADC1_IRQ.c **** /*******************************************************************************
 174:Generated_Source\PSoC5/ADC1_IRQ.c **** * Function Name: ADC1_IRQ_SetVector
 175:Generated_Source\PSoC5/ADC1_IRQ.c **** ********************************************************************************
 176:Generated_Source\PSoC5/ADC1_IRQ.c **** *
 177:Generated_Source\PSoC5/ADC1_IRQ.c **** * Summary:
 178:Generated_Source\PSoC5/ADC1_IRQ.c **** *   Change the ISR vector for the Interrupt. Note calling ADC1_IRQ_Start
 179:Generated_Source\PSoC5/ADC1_IRQ.c **** *   will override any effect this method would have had. To set the vector 
 180:Generated_Source\PSoC5/ADC1_IRQ.c **** *   before the component has been started use ADC1_IRQ_StartEx instead.
 181:Generated_Source\PSoC5/ADC1_IRQ.c **** * 
 182:Generated_Source\PSoC5/ADC1_IRQ.c **** *   When defining ISR functions, the CY_ISR and CY_ISR_PROTO macros should be 
 183:Generated_Source\PSoC5/ADC1_IRQ.c **** *   used to provide consistent definition across compilers:
 184:Generated_Source\PSoC5/ADC1_IRQ.c **** *
 185:Generated_Source\PSoC5/ADC1_IRQ.c **** *   Function definition example:
 186:Generated_Source\PSoC5/ADC1_IRQ.c **** *   CY_ISR(MyISR)
 187:Generated_Source\PSoC5/ADC1_IRQ.c **** *   {
 188:Generated_Source\PSoC5/ADC1_IRQ.c **** *   }
 189:Generated_Source\PSoC5/ADC1_IRQ.c **** *
 190:Generated_Source\PSoC5/ADC1_IRQ.c **** *   Function prototype example:
 191:Generated_Source\PSoC5/ADC1_IRQ.c **** *     CY_ISR_PROTO(MyISR);
 192:Generated_Source\PSoC5/ADC1_IRQ.c **** *
 193:Generated_Source\PSoC5/ADC1_IRQ.c **** * Parameters:
 194:Generated_Source\PSoC5/ADC1_IRQ.c **** *   address: Address of the ISR to set in the interrupt vector table.
 195:Generated_Source\PSoC5/ADC1_IRQ.c **** *
 196:Generated_Source\PSoC5/ADC1_IRQ.c **** * Return:
 197:Generated_Source\PSoC5/ADC1_IRQ.c **** *   None
 198:Generated_Source\PSoC5/ADC1_IRQ.c **** *
 199:Generated_Source\PSoC5/ADC1_IRQ.c **** *******************************************************************************/
 200:Generated_Source\PSoC5/ADC1_IRQ.c **** void ADC1_IRQ_SetVector(cyisraddress address)
 201:Generated_Source\PSoC5/ADC1_IRQ.c **** {
 171              		.loc 1 201 0
 172              		.cfi_startproc
 173              		@ args = 0, pretend = 0, frame = 16
 174              		@ frame_needed = 1, uses_anonymous_args = 0
 175              		@ link register save eliminated.
 176 0000 80B4     		push	{r7}
 177              		.cfi_def_cfa_offset 4
 178              		.cfi_offset 7, -4
 179 0002 85B0     		sub	sp, sp, #20
 180              		.cfi_def_cfa_offset 24
 181 0004 00AF     		add	r7, sp, #0
 182              		.cfi_def_cfa_register 7
 183 0006 7860     		str	r0, [r7, #4]
 202:Generated_Source\PSoC5/ADC1_IRQ.c ****     cyisraddress * ramVectorTable;
 203:Generated_Source\PSoC5/ADC1_IRQ.c **** 
 204:Generated_Source\PSoC5/ADC1_IRQ.c ****     ramVectorTable = (cyisraddress *) *CYINT_VECT_TABLE;
 184              		.loc 1 204 0
 185 0008 054B     		ldr	r3, .L10
 186 000a 1B68     		ldr	r3, [r3]
 187 000c FB60     		str	r3, [r7, #12]
 205:Generated_Source\PSoC5/ADC1_IRQ.c **** 
 206:Generated_Source\PSoC5/ADC1_IRQ.c ****     ramVectorTable[CYINT_IRQ_BASE + (uint32)ADC1_IRQ__INTC_NUMBER] = address;
 188              		.loc 1 206 0
 189 000e FB68     		ldr	r3, [r7, #12]
 190 0010 4033     		adds	r3, r3, #64
 191 0012 7A68     		ldr	r2, [r7, #4]
 192 0014 1A60     		str	r2, [r3]
 207:Generated_Source\PSoC5/ADC1_IRQ.c **** }
ARM GAS  C:\Users\Albert\AppData\Local\Temp\ccddJQue.s 			page 8


 193              		.loc 1 207 0
 194 0016 00BF     		nop
 195 0018 1437     		adds	r7, r7, #20
 196              		.cfi_def_cfa_offset 4
 197 001a BD46     		mov	sp, r7
 198              		.cfi_def_cfa_register 13
 199              		@ sp needed
 200 001c 80BC     		pop	{r7}
 201              		.cfi_restore 7
 202              		.cfi_def_cfa_offset 0
 203 001e 7047     		bx	lr
 204              	.L11:
 205              		.align	2
 206              	.L10:
 207 0020 08ED00E0 		.word	-536810232
 208              		.cfi_endproc
 209              	.LFE4:
 210              		.size	ADC1_IRQ_SetVector, .-ADC1_IRQ_SetVector
 211              		.section	.text.ADC1_IRQ_GetVector,"ax",%progbits
 212              		.align	2
 213              		.global	ADC1_IRQ_GetVector
 214              		.thumb
 215              		.thumb_func
 216              		.type	ADC1_IRQ_GetVector, %function
 217              	ADC1_IRQ_GetVector:
 218              	.LFB5:
 208:Generated_Source\PSoC5/ADC1_IRQ.c **** 
 209:Generated_Source\PSoC5/ADC1_IRQ.c **** 
 210:Generated_Source\PSoC5/ADC1_IRQ.c **** /*******************************************************************************
 211:Generated_Source\PSoC5/ADC1_IRQ.c **** * Function Name: ADC1_IRQ_GetVector
 212:Generated_Source\PSoC5/ADC1_IRQ.c **** ********************************************************************************
 213:Generated_Source\PSoC5/ADC1_IRQ.c **** *
 214:Generated_Source\PSoC5/ADC1_IRQ.c **** * Summary:
 215:Generated_Source\PSoC5/ADC1_IRQ.c **** *   Gets the "address" of the current ISR vector for the Interrupt.
 216:Generated_Source\PSoC5/ADC1_IRQ.c **** *
 217:Generated_Source\PSoC5/ADC1_IRQ.c **** * Parameters:
 218:Generated_Source\PSoC5/ADC1_IRQ.c **** *   None
 219:Generated_Source\PSoC5/ADC1_IRQ.c **** *
 220:Generated_Source\PSoC5/ADC1_IRQ.c **** * Return:
 221:Generated_Source\PSoC5/ADC1_IRQ.c **** *   Address of the ISR in the interrupt vector table.
 222:Generated_Source\PSoC5/ADC1_IRQ.c **** *
 223:Generated_Source\PSoC5/ADC1_IRQ.c **** *******************************************************************************/
 224:Generated_Source\PSoC5/ADC1_IRQ.c **** cyisraddress ADC1_IRQ_GetVector(void)
 225:Generated_Source\PSoC5/ADC1_IRQ.c **** {
 219              		.loc 1 225 0
 220              		.cfi_startproc
 221              		@ args = 0, pretend = 0, frame = 8
 222              		@ frame_needed = 1, uses_anonymous_args = 0
 223              		@ link register save eliminated.
 224 0000 80B4     		push	{r7}
 225              		.cfi_def_cfa_offset 4
 226              		.cfi_offset 7, -4
 227 0002 83B0     		sub	sp, sp, #12
 228              		.cfi_def_cfa_offset 16
 229 0004 00AF     		add	r7, sp, #0
 230              		.cfi_def_cfa_register 7
 226:Generated_Source\PSoC5/ADC1_IRQ.c ****     cyisraddress * ramVectorTable;
ARM GAS  C:\Users\Albert\AppData\Local\Temp\ccddJQue.s 			page 9


 227:Generated_Source\PSoC5/ADC1_IRQ.c **** 
 228:Generated_Source\PSoC5/ADC1_IRQ.c ****     ramVectorTable = (cyisraddress *) *CYINT_VECT_TABLE;
 231              		.loc 1 228 0
 232 0006 054B     		ldr	r3, .L14
 233 0008 1B68     		ldr	r3, [r3]
 234 000a 7B60     		str	r3, [r7, #4]
 229:Generated_Source\PSoC5/ADC1_IRQ.c **** 
 230:Generated_Source\PSoC5/ADC1_IRQ.c ****     return ramVectorTable[CYINT_IRQ_BASE + (uint32)ADC1_IRQ__INTC_NUMBER];
 235              		.loc 1 230 0
 236 000c 7B68     		ldr	r3, [r7, #4]
 237 000e 1B6C     		ldr	r3, [r3, #64]
 231:Generated_Source\PSoC5/ADC1_IRQ.c **** }
 238              		.loc 1 231 0
 239 0010 1846     		mov	r0, r3
 240 0012 0C37     		adds	r7, r7, #12
 241              		.cfi_def_cfa_offset 4
 242 0014 BD46     		mov	sp, r7
 243              		.cfi_def_cfa_register 13
 244              		@ sp needed
 245 0016 80BC     		pop	{r7}
 246              		.cfi_restore 7
 247              		.cfi_def_cfa_offset 0
 248 0018 7047     		bx	lr
 249              	.L15:
 250 001a 00BF     		.align	2
 251              	.L14:
 252 001c 08ED00E0 		.word	-536810232
 253              		.cfi_endproc
 254              	.LFE5:
 255              		.size	ADC1_IRQ_GetVector, .-ADC1_IRQ_GetVector
 256              		.section	.text.ADC1_IRQ_SetPriority,"ax",%progbits
 257              		.align	2
 258              		.global	ADC1_IRQ_SetPriority
 259              		.thumb
 260              		.thumb_func
 261              		.type	ADC1_IRQ_SetPriority, %function
 262              	ADC1_IRQ_SetPriority:
 263              	.LFB6:
 232:Generated_Source\PSoC5/ADC1_IRQ.c **** 
 233:Generated_Source\PSoC5/ADC1_IRQ.c **** 
 234:Generated_Source\PSoC5/ADC1_IRQ.c **** /*******************************************************************************
 235:Generated_Source\PSoC5/ADC1_IRQ.c **** * Function Name: ADC1_IRQ_SetPriority
 236:Generated_Source\PSoC5/ADC1_IRQ.c **** ********************************************************************************
 237:Generated_Source\PSoC5/ADC1_IRQ.c **** *
 238:Generated_Source\PSoC5/ADC1_IRQ.c **** * Summary:
 239:Generated_Source\PSoC5/ADC1_IRQ.c **** *   Sets the Priority of the Interrupt. 
 240:Generated_Source\PSoC5/ADC1_IRQ.c **** *
 241:Generated_Source\PSoC5/ADC1_IRQ.c **** *   Note calling ADC1_IRQ_Start or ADC1_IRQ_StartEx will 
 242:Generated_Source\PSoC5/ADC1_IRQ.c **** *   override any effect this API would have had. This API should only be called
 243:Generated_Source\PSoC5/ADC1_IRQ.c **** *   after ADC1_IRQ_Start or ADC1_IRQ_StartEx has been called. 
 244:Generated_Source\PSoC5/ADC1_IRQ.c **** *   To set the initial priority for the component, use the Design-Wide Resources
 245:Generated_Source\PSoC5/ADC1_IRQ.c **** *   Interrupt Editor.
 246:Generated_Source\PSoC5/ADC1_IRQ.c **** *
 247:Generated_Source\PSoC5/ADC1_IRQ.c **** *   Note This API has no effect on Non-maskable interrupt NMI).
 248:Generated_Source\PSoC5/ADC1_IRQ.c **** *
 249:Generated_Source\PSoC5/ADC1_IRQ.c **** * Parameters:
 250:Generated_Source\PSoC5/ADC1_IRQ.c **** *   priority: Priority of the interrupt, 0 being the highest priority
ARM GAS  C:\Users\Albert\AppData\Local\Temp\ccddJQue.s 			page 10


 251:Generated_Source\PSoC5/ADC1_IRQ.c **** *             PSoC 3 and PSoC 5LP: Priority is from 0 to 7.
 252:Generated_Source\PSoC5/ADC1_IRQ.c **** *             PSoC 4: Priority is from 0 to 3.
 253:Generated_Source\PSoC5/ADC1_IRQ.c **** *
 254:Generated_Source\PSoC5/ADC1_IRQ.c **** * Return:
 255:Generated_Source\PSoC5/ADC1_IRQ.c **** *   None
 256:Generated_Source\PSoC5/ADC1_IRQ.c **** *
 257:Generated_Source\PSoC5/ADC1_IRQ.c **** *******************************************************************************/
 258:Generated_Source\PSoC5/ADC1_IRQ.c **** void ADC1_IRQ_SetPriority(uint8 priority)
 259:Generated_Source\PSoC5/ADC1_IRQ.c **** {
 264              		.loc 1 259 0
 265              		.cfi_startproc
 266              		@ args = 0, pretend = 0, frame = 8
 267              		@ frame_needed = 1, uses_anonymous_args = 0
 268              		@ link register save eliminated.
 269 0000 80B4     		push	{r7}
 270              		.cfi_def_cfa_offset 4
 271              		.cfi_offset 7, -4
 272 0002 83B0     		sub	sp, sp, #12
 273              		.cfi_def_cfa_offset 16
 274 0004 00AF     		add	r7, sp, #0
 275              		.cfi_def_cfa_register 7
 276 0006 0346     		mov	r3, r0
 277 0008 FB71     		strb	r3, [r7, #7]
 260:Generated_Source\PSoC5/ADC1_IRQ.c ****     *ADC1_IRQ_INTC_PRIOR = priority << 5;
 278              		.loc 1 260 0
 279 000a 054A     		ldr	r2, .L17
 280 000c FB79     		ldrb	r3, [r7, #7]
 281 000e 5B01     		lsls	r3, r3, #5
 282 0010 DBB2     		uxtb	r3, r3
 283 0012 1370     		strb	r3, [r2]
 261:Generated_Source\PSoC5/ADC1_IRQ.c **** }
 284              		.loc 1 261 0
 285 0014 00BF     		nop
 286 0016 0C37     		adds	r7, r7, #12
 287              		.cfi_def_cfa_offset 4
 288 0018 BD46     		mov	sp, r7
 289              		.cfi_def_cfa_register 13
 290              		@ sp needed
 291 001a 80BC     		pop	{r7}
 292              		.cfi_restore 7
 293              		.cfi_def_cfa_offset 0
 294 001c 7047     		bx	lr
 295              	.L18:
 296 001e 00BF     		.align	2
 297              	.L17:
 298 0020 00E400E0 		.word	-536812544
 299              		.cfi_endproc
 300              	.LFE6:
 301              		.size	ADC1_IRQ_SetPriority, .-ADC1_IRQ_SetPriority
 302              		.section	.text.ADC1_IRQ_GetPriority,"ax",%progbits
 303              		.align	2
 304              		.global	ADC1_IRQ_GetPriority
 305              		.thumb
 306              		.thumb_func
 307              		.type	ADC1_IRQ_GetPriority, %function
 308              	ADC1_IRQ_GetPriority:
 309              	.LFB7:
ARM GAS  C:\Users\Albert\AppData\Local\Temp\ccddJQue.s 			page 11


 262:Generated_Source\PSoC5/ADC1_IRQ.c **** 
 263:Generated_Source\PSoC5/ADC1_IRQ.c **** 
 264:Generated_Source\PSoC5/ADC1_IRQ.c **** /*******************************************************************************
 265:Generated_Source\PSoC5/ADC1_IRQ.c **** * Function Name: ADC1_IRQ_GetPriority
 266:Generated_Source\PSoC5/ADC1_IRQ.c **** ********************************************************************************
 267:Generated_Source\PSoC5/ADC1_IRQ.c **** *
 268:Generated_Source\PSoC5/ADC1_IRQ.c **** * Summary:
 269:Generated_Source\PSoC5/ADC1_IRQ.c **** *   Gets the Priority of the Interrupt.
 270:Generated_Source\PSoC5/ADC1_IRQ.c **** *
 271:Generated_Source\PSoC5/ADC1_IRQ.c **** * Parameters:
 272:Generated_Source\PSoC5/ADC1_IRQ.c **** *   None
 273:Generated_Source\PSoC5/ADC1_IRQ.c **** *
 274:Generated_Source\PSoC5/ADC1_IRQ.c **** * Return:
 275:Generated_Source\PSoC5/ADC1_IRQ.c **** *   Priority of the interrupt, 0 being the highest priority
 276:Generated_Source\PSoC5/ADC1_IRQ.c **** *    PSoC 3 and PSoC 5LP: Priority is from 0 to 7.
 277:Generated_Source\PSoC5/ADC1_IRQ.c **** *    PSoC 4: Priority is from 0 to 3.
 278:Generated_Source\PSoC5/ADC1_IRQ.c **** *
 279:Generated_Source\PSoC5/ADC1_IRQ.c **** *******************************************************************************/
 280:Generated_Source\PSoC5/ADC1_IRQ.c **** uint8 ADC1_IRQ_GetPriority(void)
 281:Generated_Source\PSoC5/ADC1_IRQ.c **** {
 310              		.loc 1 281 0
 311              		.cfi_startproc
 312              		@ args = 0, pretend = 0, frame = 8
 313              		@ frame_needed = 1, uses_anonymous_args = 0
 314              		@ link register save eliminated.
 315 0000 80B4     		push	{r7}
 316              		.cfi_def_cfa_offset 4
 317              		.cfi_offset 7, -4
 318 0002 83B0     		sub	sp, sp, #12
 319              		.cfi_def_cfa_offset 16
 320 0004 00AF     		add	r7, sp, #0
 321              		.cfi_def_cfa_register 7
 282:Generated_Source\PSoC5/ADC1_IRQ.c ****     uint8 priority;
 283:Generated_Source\PSoC5/ADC1_IRQ.c **** 
 284:Generated_Source\PSoC5/ADC1_IRQ.c **** 
 285:Generated_Source\PSoC5/ADC1_IRQ.c ****     priority = *ADC1_IRQ_INTC_PRIOR >> 5;
 322              		.loc 1 285 0
 323 0006 054B     		ldr	r3, .L21
 324 0008 1B78     		ldrb	r3, [r3]
 325 000a DBB2     		uxtb	r3, r3
 326 000c 5B09     		lsrs	r3, r3, #5
 327 000e FB71     		strb	r3, [r7, #7]
 286:Generated_Source\PSoC5/ADC1_IRQ.c **** 
 287:Generated_Source\PSoC5/ADC1_IRQ.c ****     return priority;
 328              		.loc 1 287 0
 329 0010 FB79     		ldrb	r3, [r7, #7]	@ zero_extendqisi2
 288:Generated_Source\PSoC5/ADC1_IRQ.c **** }
 330              		.loc 1 288 0
 331 0012 1846     		mov	r0, r3
 332 0014 0C37     		adds	r7, r7, #12
 333              		.cfi_def_cfa_offset 4
 334 0016 BD46     		mov	sp, r7
 335              		.cfi_def_cfa_register 13
 336              		@ sp needed
 337 0018 80BC     		pop	{r7}
 338              		.cfi_restore 7
 339              		.cfi_def_cfa_offset 0
ARM GAS  C:\Users\Albert\AppData\Local\Temp\ccddJQue.s 			page 12


 340 001a 7047     		bx	lr
 341              	.L22:
 342              		.align	2
 343              	.L21:
 344 001c 00E400E0 		.word	-536812544
 345              		.cfi_endproc
 346              	.LFE7:
 347              		.size	ADC1_IRQ_GetPriority, .-ADC1_IRQ_GetPriority
 348              		.section	.text.ADC1_IRQ_Enable,"ax",%progbits
 349              		.align	2
 350              		.global	ADC1_IRQ_Enable
 351              		.thumb
 352              		.thumb_func
 353              		.type	ADC1_IRQ_Enable, %function
 354              	ADC1_IRQ_Enable:
 355              	.LFB8:
 289:Generated_Source\PSoC5/ADC1_IRQ.c **** 
 290:Generated_Source\PSoC5/ADC1_IRQ.c **** 
 291:Generated_Source\PSoC5/ADC1_IRQ.c **** /*******************************************************************************
 292:Generated_Source\PSoC5/ADC1_IRQ.c **** * Function Name: ADC1_IRQ_Enable
 293:Generated_Source\PSoC5/ADC1_IRQ.c **** ********************************************************************************
 294:Generated_Source\PSoC5/ADC1_IRQ.c **** *
 295:Generated_Source\PSoC5/ADC1_IRQ.c **** * Summary:
 296:Generated_Source\PSoC5/ADC1_IRQ.c **** *   Enables the interrupt to the interrupt controller. Do not call this function
 297:Generated_Source\PSoC5/ADC1_IRQ.c **** *   unless ISR_Start() has been called or the functionality of the ISR_Start() 
 298:Generated_Source\PSoC5/ADC1_IRQ.c **** *   function, which sets the vector and the priority, has been called.
 299:Generated_Source\PSoC5/ADC1_IRQ.c **** *
 300:Generated_Source\PSoC5/ADC1_IRQ.c **** * Parameters:
 301:Generated_Source\PSoC5/ADC1_IRQ.c **** *   None
 302:Generated_Source\PSoC5/ADC1_IRQ.c **** *
 303:Generated_Source\PSoC5/ADC1_IRQ.c **** * Return:
 304:Generated_Source\PSoC5/ADC1_IRQ.c **** *   None
 305:Generated_Source\PSoC5/ADC1_IRQ.c **** *
 306:Generated_Source\PSoC5/ADC1_IRQ.c **** *******************************************************************************/
 307:Generated_Source\PSoC5/ADC1_IRQ.c **** void ADC1_IRQ_Enable(void)
 308:Generated_Source\PSoC5/ADC1_IRQ.c **** {
 356              		.loc 1 308 0
 357              		.cfi_startproc
 358              		@ args = 0, pretend = 0, frame = 0
 359              		@ frame_needed = 1, uses_anonymous_args = 0
 360              		@ link register save eliminated.
 361 0000 80B4     		push	{r7}
 362              		.cfi_def_cfa_offset 4
 363              		.cfi_offset 7, -4
 364 0002 00AF     		add	r7, sp, #0
 365              		.cfi_def_cfa_register 7
 309:Generated_Source\PSoC5/ADC1_IRQ.c ****     /* Enable the general interrupt. */
 310:Generated_Source\PSoC5/ADC1_IRQ.c ****     *ADC1_IRQ_INTC_SET_EN = ADC1_IRQ__INTC_MASK;
 366              		.loc 1 310 0
 367 0004 034B     		ldr	r3, .L24
 368 0006 0122     		movs	r2, #1
 369 0008 1A60     		str	r2, [r3]
 311:Generated_Source\PSoC5/ADC1_IRQ.c **** }
 370              		.loc 1 311 0
 371 000a 00BF     		nop
 372 000c BD46     		mov	sp, r7
 373              		.cfi_def_cfa_register 13
ARM GAS  C:\Users\Albert\AppData\Local\Temp\ccddJQue.s 			page 13


 374              		@ sp needed
 375 000e 80BC     		pop	{r7}
 376              		.cfi_restore 7
 377              		.cfi_def_cfa_offset 0
 378 0010 7047     		bx	lr
 379              	.L25:
 380 0012 00BF     		.align	2
 381              	.L24:
 382 0014 00E100E0 		.word	-536813312
 383              		.cfi_endproc
 384              	.LFE8:
 385              		.size	ADC1_IRQ_Enable, .-ADC1_IRQ_Enable
 386              		.section	.text.ADC1_IRQ_GetState,"ax",%progbits
 387              		.align	2
 388              		.global	ADC1_IRQ_GetState
 389              		.thumb
 390              		.thumb_func
 391              		.type	ADC1_IRQ_GetState, %function
 392              	ADC1_IRQ_GetState:
 393              	.LFB9:
 312:Generated_Source\PSoC5/ADC1_IRQ.c **** 
 313:Generated_Source\PSoC5/ADC1_IRQ.c **** 
 314:Generated_Source\PSoC5/ADC1_IRQ.c **** /*******************************************************************************
 315:Generated_Source\PSoC5/ADC1_IRQ.c **** * Function Name: ADC1_IRQ_GetState
 316:Generated_Source\PSoC5/ADC1_IRQ.c **** ********************************************************************************
 317:Generated_Source\PSoC5/ADC1_IRQ.c **** *
 318:Generated_Source\PSoC5/ADC1_IRQ.c **** * Summary:
 319:Generated_Source\PSoC5/ADC1_IRQ.c **** *   Gets the state (enabled, disabled) of the Interrupt.
 320:Generated_Source\PSoC5/ADC1_IRQ.c **** *
 321:Generated_Source\PSoC5/ADC1_IRQ.c **** * Parameters:
 322:Generated_Source\PSoC5/ADC1_IRQ.c **** *   None
 323:Generated_Source\PSoC5/ADC1_IRQ.c **** *
 324:Generated_Source\PSoC5/ADC1_IRQ.c **** * Return:
 325:Generated_Source\PSoC5/ADC1_IRQ.c **** *   1 if enabled, 0 if disabled.
 326:Generated_Source\PSoC5/ADC1_IRQ.c **** *
 327:Generated_Source\PSoC5/ADC1_IRQ.c **** *******************************************************************************/
 328:Generated_Source\PSoC5/ADC1_IRQ.c **** uint8 ADC1_IRQ_GetState(void)
 329:Generated_Source\PSoC5/ADC1_IRQ.c **** {
 394              		.loc 1 329 0
 395              		.cfi_startproc
 396              		@ args = 0, pretend = 0, frame = 0
 397              		@ frame_needed = 1, uses_anonymous_args = 0
 398              		@ link register save eliminated.
 399 0000 80B4     		push	{r7}
 400              		.cfi_def_cfa_offset 4
 401              		.cfi_offset 7, -4
 402 0002 00AF     		add	r7, sp, #0
 403              		.cfi_def_cfa_register 7
 330:Generated_Source\PSoC5/ADC1_IRQ.c ****     /* Get the state of the general interrupt. */
 331:Generated_Source\PSoC5/ADC1_IRQ.c ****     return ((*ADC1_IRQ_INTC_SET_EN & (uint32)ADC1_IRQ__INTC_MASK) != 0u) ? 1u:0u;
 404              		.loc 1 331 0
 405 0004 044B     		ldr	r3, .L28
 406 0006 1B68     		ldr	r3, [r3]
 407 0008 DBB2     		uxtb	r3, r3
 408 000a 03F00103 		and	r3, r3, #1
 409 000e DBB2     		uxtb	r3, r3
 332:Generated_Source\PSoC5/ADC1_IRQ.c **** }
ARM GAS  C:\Users\Albert\AppData\Local\Temp\ccddJQue.s 			page 14


 410              		.loc 1 332 0
 411 0010 1846     		mov	r0, r3
 412 0012 BD46     		mov	sp, r7
 413              		.cfi_def_cfa_register 13
 414              		@ sp needed
 415 0014 80BC     		pop	{r7}
 416              		.cfi_restore 7
 417              		.cfi_def_cfa_offset 0
 418 0016 7047     		bx	lr
 419              	.L29:
 420              		.align	2
 421              	.L28:
 422 0018 00E100E0 		.word	-536813312
 423              		.cfi_endproc
 424              	.LFE9:
 425              		.size	ADC1_IRQ_GetState, .-ADC1_IRQ_GetState
 426              		.section	.text.ADC1_IRQ_Disable,"ax",%progbits
 427              		.align	2
 428              		.global	ADC1_IRQ_Disable
 429              		.thumb
 430              		.thumb_func
 431              		.type	ADC1_IRQ_Disable, %function
 432              	ADC1_IRQ_Disable:
 433              	.LFB10:
 333:Generated_Source\PSoC5/ADC1_IRQ.c **** 
 334:Generated_Source\PSoC5/ADC1_IRQ.c **** 
 335:Generated_Source\PSoC5/ADC1_IRQ.c **** /*******************************************************************************
 336:Generated_Source\PSoC5/ADC1_IRQ.c **** * Function Name: ADC1_IRQ_Disable
 337:Generated_Source\PSoC5/ADC1_IRQ.c **** ********************************************************************************
 338:Generated_Source\PSoC5/ADC1_IRQ.c **** *
 339:Generated_Source\PSoC5/ADC1_IRQ.c **** * Summary:
 340:Generated_Source\PSoC5/ADC1_IRQ.c **** *   Disables the Interrupt in the interrupt controller.
 341:Generated_Source\PSoC5/ADC1_IRQ.c **** *
 342:Generated_Source\PSoC5/ADC1_IRQ.c **** * Parameters:
 343:Generated_Source\PSoC5/ADC1_IRQ.c **** *   None
 344:Generated_Source\PSoC5/ADC1_IRQ.c **** *
 345:Generated_Source\PSoC5/ADC1_IRQ.c **** * Return:
 346:Generated_Source\PSoC5/ADC1_IRQ.c **** *   None
 347:Generated_Source\PSoC5/ADC1_IRQ.c **** *
 348:Generated_Source\PSoC5/ADC1_IRQ.c **** *******************************************************************************/
 349:Generated_Source\PSoC5/ADC1_IRQ.c **** void ADC1_IRQ_Disable(void)
 350:Generated_Source\PSoC5/ADC1_IRQ.c **** {
 434              		.loc 1 350 0
 435              		.cfi_startproc
 436              		@ args = 0, pretend = 0, frame = 0
 437              		@ frame_needed = 1, uses_anonymous_args = 0
 438              		@ link register save eliminated.
 439 0000 80B4     		push	{r7}
 440              		.cfi_def_cfa_offset 4
 441              		.cfi_offset 7, -4
 442 0002 00AF     		add	r7, sp, #0
 443              		.cfi_def_cfa_register 7
 351:Generated_Source\PSoC5/ADC1_IRQ.c ****     /* Disable the general interrupt. */
 352:Generated_Source\PSoC5/ADC1_IRQ.c ****     *ADC1_IRQ_INTC_CLR_EN = ADC1_IRQ__INTC_MASK;
 444              		.loc 1 352 0
 445 0004 034B     		ldr	r3, .L31
 446 0006 0122     		movs	r2, #1
ARM GAS  C:\Users\Albert\AppData\Local\Temp\ccddJQue.s 			page 15


 447 0008 1A60     		str	r2, [r3]
 353:Generated_Source\PSoC5/ADC1_IRQ.c **** }
 448              		.loc 1 353 0
 449 000a 00BF     		nop
 450 000c BD46     		mov	sp, r7
 451              		.cfi_def_cfa_register 13
 452              		@ sp needed
 453 000e 80BC     		pop	{r7}
 454              		.cfi_restore 7
 455              		.cfi_def_cfa_offset 0
 456 0010 7047     		bx	lr
 457              	.L32:
 458 0012 00BF     		.align	2
 459              	.L31:
 460 0014 80E100E0 		.word	-536813184
 461              		.cfi_endproc
 462              	.LFE10:
 463              		.size	ADC1_IRQ_Disable, .-ADC1_IRQ_Disable
 464              		.section	.text.ADC1_IRQ_SetPending,"ax",%progbits
 465              		.align	2
 466              		.global	ADC1_IRQ_SetPending
 467              		.thumb
 468              		.thumb_func
 469              		.type	ADC1_IRQ_SetPending, %function
 470              	ADC1_IRQ_SetPending:
 471              	.LFB11:
 354:Generated_Source\PSoC5/ADC1_IRQ.c **** 
 355:Generated_Source\PSoC5/ADC1_IRQ.c **** 
 356:Generated_Source\PSoC5/ADC1_IRQ.c **** /*******************************************************************************
 357:Generated_Source\PSoC5/ADC1_IRQ.c **** * Function Name: ADC1_IRQ_SetPending
 358:Generated_Source\PSoC5/ADC1_IRQ.c **** ********************************************************************************
 359:Generated_Source\PSoC5/ADC1_IRQ.c **** *
 360:Generated_Source\PSoC5/ADC1_IRQ.c **** * Summary:
 361:Generated_Source\PSoC5/ADC1_IRQ.c **** *   Causes the Interrupt to enter the pending state, a software method of
 362:Generated_Source\PSoC5/ADC1_IRQ.c **** *   generating the interrupt.
 363:Generated_Source\PSoC5/ADC1_IRQ.c **** *
 364:Generated_Source\PSoC5/ADC1_IRQ.c **** * Parameters:
 365:Generated_Source\PSoC5/ADC1_IRQ.c **** *   None
 366:Generated_Source\PSoC5/ADC1_IRQ.c **** *
 367:Generated_Source\PSoC5/ADC1_IRQ.c **** * Return:
 368:Generated_Source\PSoC5/ADC1_IRQ.c **** *   None
 369:Generated_Source\PSoC5/ADC1_IRQ.c **** *
 370:Generated_Source\PSoC5/ADC1_IRQ.c **** * Side Effects:
 371:Generated_Source\PSoC5/ADC1_IRQ.c **** *   If interrupts are enabled and the interrupt is set up properly, the ISR is
 372:Generated_Source\PSoC5/ADC1_IRQ.c **** *   entered (depending on the priority of this interrupt and other pending 
 373:Generated_Source\PSoC5/ADC1_IRQ.c **** *   interrupts).
 374:Generated_Source\PSoC5/ADC1_IRQ.c **** *
 375:Generated_Source\PSoC5/ADC1_IRQ.c **** *******************************************************************************/
 376:Generated_Source\PSoC5/ADC1_IRQ.c **** void ADC1_IRQ_SetPending(void)
 377:Generated_Source\PSoC5/ADC1_IRQ.c **** {
 472              		.loc 1 377 0
 473              		.cfi_startproc
 474              		@ args = 0, pretend = 0, frame = 0
 475              		@ frame_needed = 1, uses_anonymous_args = 0
 476              		@ link register save eliminated.
 477 0000 80B4     		push	{r7}
 478              		.cfi_def_cfa_offset 4
ARM GAS  C:\Users\Albert\AppData\Local\Temp\ccddJQue.s 			page 16


 479              		.cfi_offset 7, -4
 480 0002 00AF     		add	r7, sp, #0
 481              		.cfi_def_cfa_register 7
 378:Generated_Source\PSoC5/ADC1_IRQ.c ****     *ADC1_IRQ_INTC_SET_PD = ADC1_IRQ__INTC_MASK;
 482              		.loc 1 378 0
 483 0004 034B     		ldr	r3, .L34
 484 0006 0122     		movs	r2, #1
 485 0008 1A60     		str	r2, [r3]
 379:Generated_Source\PSoC5/ADC1_IRQ.c **** }
 486              		.loc 1 379 0
 487 000a 00BF     		nop
 488 000c BD46     		mov	sp, r7
 489              		.cfi_def_cfa_register 13
 490              		@ sp needed
 491 000e 80BC     		pop	{r7}
 492              		.cfi_restore 7
 493              		.cfi_def_cfa_offset 0
 494 0010 7047     		bx	lr
 495              	.L35:
 496 0012 00BF     		.align	2
 497              	.L34:
 498 0014 00E200E0 		.word	-536813056
 499              		.cfi_endproc
 500              	.LFE11:
 501              		.size	ADC1_IRQ_SetPending, .-ADC1_IRQ_SetPending
 502              		.section	.text.ADC1_IRQ_ClearPending,"ax",%progbits
 503              		.align	2
 504              		.global	ADC1_IRQ_ClearPending
 505              		.thumb
 506              		.thumb_func
 507              		.type	ADC1_IRQ_ClearPending, %function
 508              	ADC1_IRQ_ClearPending:
 509              	.LFB12:
 380:Generated_Source\PSoC5/ADC1_IRQ.c **** 
 381:Generated_Source\PSoC5/ADC1_IRQ.c **** 
 382:Generated_Source\PSoC5/ADC1_IRQ.c **** /*******************************************************************************
 383:Generated_Source\PSoC5/ADC1_IRQ.c **** * Function Name: ADC1_IRQ_ClearPending
 384:Generated_Source\PSoC5/ADC1_IRQ.c **** ********************************************************************************
 385:Generated_Source\PSoC5/ADC1_IRQ.c **** *
 386:Generated_Source\PSoC5/ADC1_IRQ.c **** * Summary:
 387:Generated_Source\PSoC5/ADC1_IRQ.c **** *   Clears a pending interrupt in the interrupt controller.
 388:Generated_Source\PSoC5/ADC1_IRQ.c **** *
 389:Generated_Source\PSoC5/ADC1_IRQ.c **** *   Note Some interrupt sources are clear-on-read and require the block 
 390:Generated_Source\PSoC5/ADC1_IRQ.c **** *   interrupt/status register to be read/cleared with the appropriate block API 
 391:Generated_Source\PSoC5/ADC1_IRQ.c **** *   (GPIO, UART, and so on). Otherwise the ISR will continue to remain in 
 392:Generated_Source\PSoC5/ADC1_IRQ.c **** *   pending state even though the interrupt itself is cleared using this API.
 393:Generated_Source\PSoC5/ADC1_IRQ.c **** *
 394:Generated_Source\PSoC5/ADC1_IRQ.c **** * Parameters:
 395:Generated_Source\PSoC5/ADC1_IRQ.c **** *   None
 396:Generated_Source\PSoC5/ADC1_IRQ.c **** *
 397:Generated_Source\PSoC5/ADC1_IRQ.c **** * Return:
 398:Generated_Source\PSoC5/ADC1_IRQ.c **** *   None
 399:Generated_Source\PSoC5/ADC1_IRQ.c **** *
 400:Generated_Source\PSoC5/ADC1_IRQ.c **** *******************************************************************************/
 401:Generated_Source\PSoC5/ADC1_IRQ.c **** void ADC1_IRQ_ClearPending(void)
 402:Generated_Source\PSoC5/ADC1_IRQ.c **** {
 510              		.loc 1 402 0
ARM GAS  C:\Users\Albert\AppData\Local\Temp\ccddJQue.s 			page 17


 511              		.cfi_startproc
 512              		@ args = 0, pretend = 0, frame = 0
 513              		@ frame_needed = 1, uses_anonymous_args = 0
 514              		@ link register save eliminated.
 515 0000 80B4     		push	{r7}
 516              		.cfi_def_cfa_offset 4
 517              		.cfi_offset 7, -4
 518 0002 00AF     		add	r7, sp, #0
 519              		.cfi_def_cfa_register 7
 403:Generated_Source\PSoC5/ADC1_IRQ.c ****     *ADC1_IRQ_INTC_CLR_PD = ADC1_IRQ__INTC_MASK;
 520              		.loc 1 403 0
 521 0004 034B     		ldr	r3, .L37
 522 0006 0122     		movs	r2, #1
 523 0008 1A60     		str	r2, [r3]
 404:Generated_Source\PSoC5/ADC1_IRQ.c **** }
 524              		.loc 1 404 0
 525 000a 00BF     		nop
 526 000c BD46     		mov	sp, r7
 527              		.cfi_def_cfa_register 13
 528              		@ sp needed
 529 000e 80BC     		pop	{r7}
 530              		.cfi_restore 7
 531              		.cfi_def_cfa_offset 0
 532 0010 7047     		bx	lr
 533              	.L38:
 534 0012 00BF     		.align	2
 535              	.L37:
 536 0014 80E200E0 		.word	-536812928
 537              		.cfi_endproc
 538              	.LFE12:
 539              		.size	ADC1_IRQ_ClearPending, .-ADC1_IRQ_ClearPending
 540              		.text
 541              	.Letext0:
 542              		.file 2 "Generated_Source\\PSoC5/cytypes.h"