ARM GAS  C:\Users\Albert\AppData\Local\Temp\ccLiNHXc.s 			page 1


   1              		.syntax unified
   2              		.cpu cortex-m3
   3              		.fpu softvfp
   4              		.eabi_attribute 20, 1
   5              		.eabi_attribute 21, 1
   6              		.eabi_attribute 23, 3
   7              		.eabi_attribute 24, 1
   8              		.eabi_attribute 25, 1
   9              		.eabi_attribute 26, 1
  10              		.eabi_attribute 30, 6
  11              		.eabi_attribute 34, 1
  12              		.eabi_attribute 18, 4
  13              		.thumb
  14              		.syntax unified
  15              		.file	"ADC1_PM.c"
  16              		.text
  17              	.Ltext0:
  18              		.cfi_sections	.debug_frame
  19              		.bss
  20              		.align	2
  21              	ADC1_backup:
  22 0000 00       		.space	1
  23              		.section	.text.ADC1_SaveConfig,"ax",%progbits
  24              		.align	2
  25              		.global	ADC1_SaveConfig
  26              		.thumb
  27              		.thumb_func
  28              		.type	ADC1_SaveConfig, %function
  29              	ADC1_SaveConfig:
  30              	.LFB0:
  31              		.file 1 "Generated_Source\\PSoC5\\ADC1_PM.c"
   1:Generated_Source\PSoC5/ADC1_PM.c **** /*******************************************************************************
   2:Generated_Source\PSoC5/ADC1_PM.c **** * File Name: ADC1_PM.c
   3:Generated_Source\PSoC5/ADC1_PM.c **** * Version 3.0
   4:Generated_Source\PSoC5/ADC1_PM.c **** *
   5:Generated_Source\PSoC5/ADC1_PM.c **** * Description:
   6:Generated_Source\PSoC5/ADC1_PM.c **** *  This file provides Sleep/WakeUp APIs functionality.
   7:Generated_Source\PSoC5/ADC1_PM.c **** *
   8:Generated_Source\PSoC5/ADC1_PM.c **** * Note:
   9:Generated_Source\PSoC5/ADC1_PM.c **** *
  10:Generated_Source\PSoC5/ADC1_PM.c **** ********************************************************************************
  11:Generated_Source\PSoC5/ADC1_PM.c **** * Copyright 2008-2015, Cypress Semiconductor Corporation.  All rights reserved.
  12:Generated_Source\PSoC5/ADC1_PM.c **** * You may use this file only in accordance with the license, terms, conditions,
  13:Generated_Source\PSoC5/ADC1_PM.c **** * disclaimers, and limitations in the end user license agreement accompanying
  14:Generated_Source\PSoC5/ADC1_PM.c **** * the software package with which this file was provided.
  15:Generated_Source\PSoC5/ADC1_PM.c **** *******************************************************************************/
  16:Generated_Source\PSoC5/ADC1_PM.c **** 
  17:Generated_Source\PSoC5/ADC1_PM.c **** #include "ADC1.h"
  18:Generated_Source\PSoC5/ADC1_PM.c **** 
  19:Generated_Source\PSoC5/ADC1_PM.c **** 
  20:Generated_Source\PSoC5/ADC1_PM.c **** /***************************************
  21:Generated_Source\PSoC5/ADC1_PM.c **** * Local data allocation
  22:Generated_Source\PSoC5/ADC1_PM.c **** ***************************************/
  23:Generated_Source\PSoC5/ADC1_PM.c **** 
  24:Generated_Source\PSoC5/ADC1_PM.c **** static ADC1_BACKUP_STRUCT  ADC1_backup =
  25:Generated_Source\PSoC5/ADC1_PM.c **** {
  26:Generated_Source\PSoC5/ADC1_PM.c ****     ADC1_DISABLED
ARM GAS  C:\Users\Albert\AppData\Local\Temp\ccLiNHXc.s 			page 2


  27:Generated_Source\PSoC5/ADC1_PM.c **** };
  28:Generated_Source\PSoC5/ADC1_PM.c **** 
  29:Generated_Source\PSoC5/ADC1_PM.c **** 
  30:Generated_Source\PSoC5/ADC1_PM.c **** /*******************************************************************************
  31:Generated_Source\PSoC5/ADC1_PM.c **** * Function Name: ADC1_SaveConfig
  32:Generated_Source\PSoC5/ADC1_PM.c **** ********************************************************************************
  33:Generated_Source\PSoC5/ADC1_PM.c **** *
  34:Generated_Source\PSoC5/ADC1_PM.c **** * Summary:
  35:Generated_Source\PSoC5/ADC1_PM.c **** *  Saves the current user configuration.
  36:Generated_Source\PSoC5/ADC1_PM.c **** *
  37:Generated_Source\PSoC5/ADC1_PM.c **** * Parameters:
  38:Generated_Source\PSoC5/ADC1_PM.c **** *  None.
  39:Generated_Source\PSoC5/ADC1_PM.c **** *
  40:Generated_Source\PSoC5/ADC1_PM.c **** * Return:
  41:Generated_Source\PSoC5/ADC1_PM.c **** *  None.
  42:Generated_Source\PSoC5/ADC1_PM.c **** *
  43:Generated_Source\PSoC5/ADC1_PM.c **** *******************************************************************************/
  44:Generated_Source\PSoC5/ADC1_PM.c **** void ADC1_SaveConfig(void)
  45:Generated_Source\PSoC5/ADC1_PM.c **** {
  32              		.loc 1 45 0
  33              		.cfi_startproc
  34              		@ args = 0, pretend = 0, frame = 0
  35              		@ frame_needed = 1, uses_anonymous_args = 0
  36              		@ link register save eliminated.
  37 0000 80B4     		push	{r7}
  38              		.cfi_def_cfa_offset 4
  39              		.cfi_offset 7, -4
  40 0002 00AF     		add	r7, sp, #0
  41              		.cfi_def_cfa_register 7
  46:Generated_Source\PSoC5/ADC1_PM.c ****     /* All configuration registers are marked as [reset_all_retention] */
  47:Generated_Source\PSoC5/ADC1_PM.c **** }
  42              		.loc 1 47 0
  43 0004 00BF     		nop
  44 0006 BD46     		mov	sp, r7
  45              		.cfi_def_cfa_register 13
  46              		@ sp needed
  47 0008 80BC     		pop	{r7}
  48              		.cfi_restore 7
  49              		.cfi_def_cfa_offset 0
  50 000a 7047     		bx	lr
  51              		.cfi_endproc
  52              	.LFE0:
  53              		.size	ADC1_SaveConfig, .-ADC1_SaveConfig
  54              		.section	.text.ADC1_RestoreConfig,"ax",%progbits
  55              		.align	2
  56              		.global	ADC1_RestoreConfig
  57              		.thumb
  58              		.thumb_func
  59              		.type	ADC1_RestoreConfig, %function
  60              	ADC1_RestoreConfig:
  61              	.LFB1:
  48:Generated_Source\PSoC5/ADC1_PM.c **** 
  49:Generated_Source\PSoC5/ADC1_PM.c **** 
  50:Generated_Source\PSoC5/ADC1_PM.c **** /*******************************************************************************
  51:Generated_Source\PSoC5/ADC1_PM.c **** * Function Name: ADC1_RestoreConfig
  52:Generated_Source\PSoC5/ADC1_PM.c **** ********************************************************************************
  53:Generated_Source\PSoC5/ADC1_PM.c **** *
ARM GAS  C:\Users\Albert\AppData\Local\Temp\ccLiNHXc.s 			page 3


  54:Generated_Source\PSoC5/ADC1_PM.c **** * Summary:
  55:Generated_Source\PSoC5/ADC1_PM.c **** *  Restores the current user configuration.
  56:Generated_Source\PSoC5/ADC1_PM.c **** *
  57:Generated_Source\PSoC5/ADC1_PM.c **** * Parameters:
  58:Generated_Source\PSoC5/ADC1_PM.c **** *  None.
  59:Generated_Source\PSoC5/ADC1_PM.c **** *
  60:Generated_Source\PSoC5/ADC1_PM.c **** * Return:
  61:Generated_Source\PSoC5/ADC1_PM.c **** *  None.
  62:Generated_Source\PSoC5/ADC1_PM.c **** *
  63:Generated_Source\PSoC5/ADC1_PM.c **** *******************************************************************************/
  64:Generated_Source\PSoC5/ADC1_PM.c **** void ADC1_RestoreConfig(void)
  65:Generated_Source\PSoC5/ADC1_PM.c **** {
  62              		.loc 1 65 0
  63              		.cfi_startproc
  64              		@ args = 0, pretend = 0, frame = 0
  65              		@ frame_needed = 1, uses_anonymous_args = 0
  66              		@ link register save eliminated.
  67 0000 80B4     		push	{r7}
  68              		.cfi_def_cfa_offset 4
  69              		.cfi_offset 7, -4
  70 0002 00AF     		add	r7, sp, #0
  71              		.cfi_def_cfa_register 7
  66:Generated_Source\PSoC5/ADC1_PM.c ****     /* All congiguration registers are marked as [reset_all_retention] */
  67:Generated_Source\PSoC5/ADC1_PM.c **** }
  72              		.loc 1 67 0
  73 0004 00BF     		nop
  74 0006 BD46     		mov	sp, r7
  75              		.cfi_def_cfa_register 13
  76              		@ sp needed
  77 0008 80BC     		pop	{r7}
  78              		.cfi_restore 7
  79              		.cfi_def_cfa_offset 0
  80 000a 7047     		bx	lr
  81              		.cfi_endproc
  82              	.LFE1:
  83              		.size	ADC1_RestoreConfig, .-ADC1_RestoreConfig
  84              		.section	.text.ADC1_Sleep,"ax",%progbits
  85              		.align	2
  86              		.global	ADC1_Sleep
  87              		.thumb
  88              		.thumb_func
  89              		.type	ADC1_Sleep, %function
  90              	ADC1_Sleep:
  91              	.LFB2:
  68:Generated_Source\PSoC5/ADC1_PM.c **** 
  69:Generated_Source\PSoC5/ADC1_PM.c **** 
  70:Generated_Source\PSoC5/ADC1_PM.c **** /*******************************************************************************
  71:Generated_Source\PSoC5/ADC1_PM.c **** * Function Name: ADC1_Sleep
  72:Generated_Source\PSoC5/ADC1_PM.c **** ********************************************************************************
  73:Generated_Source\PSoC5/ADC1_PM.c **** *
  74:Generated_Source\PSoC5/ADC1_PM.c **** * Summary:
  75:Generated_Source\PSoC5/ADC1_PM.c **** *  This is the preferred routine to prepare the component for sleep.
  76:Generated_Source\PSoC5/ADC1_PM.c **** *  The ADC1_Sleep() routine saves the current component state,
  77:Generated_Source\PSoC5/ADC1_PM.c **** *  then it calls the ADC_Stop() function.
  78:Generated_Source\PSoC5/ADC1_PM.c **** *
  79:Generated_Source\PSoC5/ADC1_PM.c **** * Parameters:
  80:Generated_Source\PSoC5/ADC1_PM.c **** *  None.
ARM GAS  C:\Users\Albert\AppData\Local\Temp\ccLiNHXc.s 			page 4


  81:Generated_Source\PSoC5/ADC1_PM.c **** *
  82:Generated_Source\PSoC5/ADC1_PM.c **** * Return:
  83:Generated_Source\PSoC5/ADC1_PM.c **** *  None.
  84:Generated_Source\PSoC5/ADC1_PM.c **** *
  85:Generated_Source\PSoC5/ADC1_PM.c **** * Global Variables:
  86:Generated_Source\PSoC5/ADC1_PM.c **** *  ADC1_backup - The structure field 'enableState' is modified
  87:Generated_Source\PSoC5/ADC1_PM.c **** *  depending on the enable state of the block before entering to sleep mode.
  88:Generated_Source\PSoC5/ADC1_PM.c **** *
  89:Generated_Source\PSoC5/ADC1_PM.c **** *******************************************************************************/
  90:Generated_Source\PSoC5/ADC1_PM.c **** void ADC1_Sleep(void)
  91:Generated_Source\PSoC5/ADC1_PM.c **** {
  92              		.loc 1 91 0
  93              		.cfi_startproc
  94              		@ args = 0, pretend = 0, frame = 0
  95              		@ frame_needed = 1, uses_anonymous_args = 0
  96 0000 80B5     		push	{r7, lr}
  97              		.cfi_def_cfa_offset 8
  98              		.cfi_offset 7, -8
  99              		.cfi_offset 14, -4
 100 0002 00AF     		add	r7, sp, #0
 101              		.cfi_def_cfa_register 7
  92:Generated_Source\PSoC5/ADC1_PM.c ****     if((ADC1_PWRMGR_SAR_REG  & ADC1_ACT_PWR_SAR_EN) != 0u)
 102              		.loc 1 92 0
 103 0004 0E4B     		ldr	r3, .L9
 104 0006 1B78     		ldrb	r3, [r3]
 105 0008 DBB2     		uxtb	r3, r3
 106 000a 03F00203 		and	r3, r3, #2
 107 000e 002B     		cmp	r3, #0
 108 0010 10D0     		beq	.L4
  93:Generated_Source\PSoC5/ADC1_PM.c ****     {
  94:Generated_Source\PSoC5/ADC1_PM.c ****         if((ADC1_SAR_CSR0_REG & ADC1_SAR_SOF_START_CONV) != 0u)
 109              		.loc 1 94 0
 110 0012 0C4B     		ldr	r3, .L9+4
 111 0014 1B78     		ldrb	r3, [r3]
 112 0016 DBB2     		uxtb	r3, r3
 113 0018 03F00103 		and	r3, r3, #1
 114 001c 002B     		cmp	r3, #0
 115 001e 03D0     		beq	.L5
  95:Generated_Source\PSoC5/ADC1_PM.c ****         {
  96:Generated_Source\PSoC5/ADC1_PM.c ****             ADC1_backup.enableState = ADC1_ENABLED | ADC1_STARTED;
 116              		.loc 1 96 0
 117 0020 094B     		ldr	r3, .L9+8
 118 0022 0322     		movs	r2, #3
 119 0024 1A70     		strb	r2, [r3]
 120 0026 02E0     		b	.L6
 121              	.L5:
  97:Generated_Source\PSoC5/ADC1_PM.c ****         }
  98:Generated_Source\PSoC5/ADC1_PM.c ****         else
  99:Generated_Source\PSoC5/ADC1_PM.c ****         {
 100:Generated_Source\PSoC5/ADC1_PM.c ****             ADC1_backup.enableState = ADC1_ENABLED;
 122              		.loc 1 100 0
 123 0028 074B     		ldr	r3, .L9+8
 124 002a 0122     		movs	r2, #1
 125 002c 1A70     		strb	r2, [r3]
 126              	.L6:
 101:Generated_Source\PSoC5/ADC1_PM.c ****         }
 102:Generated_Source\PSoC5/ADC1_PM.c ****         ADC1_Stop();
ARM GAS  C:\Users\Albert\AppData\Local\Temp\ccLiNHXc.s 			page 5


 127              		.loc 1 102 0
 128 002e FFF7FEFF 		bl	ADC1_Stop
 103:Generated_Source\PSoC5/ADC1_PM.c ****     }
 104:Generated_Source\PSoC5/ADC1_PM.c ****     else
 105:Generated_Source\PSoC5/ADC1_PM.c ****     {
 106:Generated_Source\PSoC5/ADC1_PM.c ****         ADC1_backup.enableState = ADC1_DISABLED;
 107:Generated_Source\PSoC5/ADC1_PM.c ****     }
 108:Generated_Source\PSoC5/ADC1_PM.c **** }
 129              		.loc 1 108 0
 130 0032 02E0     		b	.L8
 131              	.L4:
 106:Generated_Source\PSoC5/ADC1_PM.c ****     }
 132              		.loc 1 106 0
 133 0034 044B     		ldr	r3, .L9+8
 134 0036 0022     		movs	r2, #0
 135 0038 1A70     		strb	r2, [r3]
 136              	.L8:
 137              		.loc 1 108 0
 138 003a 00BF     		nop
 139 003c 80BD     		pop	{r7, pc}
 140              	.L10:
 141 003e 00BF     		.align	2
 142              	.L9:
 143 0040 AB430040 		.word	1073759147
 144 0044 08590040 		.word	1073764616
 145 0048 00000000 		.word	ADC1_backup
 146              		.cfi_endproc
 147              	.LFE2:
 148              		.size	ADC1_Sleep, .-ADC1_Sleep
 149              		.section	.text.ADC1_Wakeup,"ax",%progbits
 150              		.align	2
 151              		.global	ADC1_Wakeup
 152              		.thumb
 153              		.thumb_func
 154              		.type	ADC1_Wakeup, %function
 155              	ADC1_Wakeup:
 156              	.LFB3:
 109:Generated_Source\PSoC5/ADC1_PM.c **** 
 110:Generated_Source\PSoC5/ADC1_PM.c **** 
 111:Generated_Source\PSoC5/ADC1_PM.c **** /*******************************************************************************
 112:Generated_Source\PSoC5/ADC1_PM.c **** * Function Name: ADC1_Wakeup
 113:Generated_Source\PSoC5/ADC1_PM.c **** ********************************************************************************
 114:Generated_Source\PSoC5/ADC1_PM.c **** *
 115:Generated_Source\PSoC5/ADC1_PM.c **** * Summary:
 116:Generated_Source\PSoC5/ADC1_PM.c **** *  This is the preferred routine to restore the component to the state when
 117:Generated_Source\PSoC5/ADC1_PM.c **** *  ADC1_Sleep() was called. If the component was enabled before the
 118:Generated_Source\PSoC5/ADC1_PM.c **** *  ADC1_Sleep() function was called, the
 119:Generated_Source\PSoC5/ADC1_PM.c **** *  ADC1_Wakeup() function also re-enables the component.
 120:Generated_Source\PSoC5/ADC1_PM.c **** *
 121:Generated_Source\PSoC5/ADC1_PM.c **** * Parameters:
 122:Generated_Source\PSoC5/ADC1_PM.c **** *  None.
 123:Generated_Source\PSoC5/ADC1_PM.c **** *
 124:Generated_Source\PSoC5/ADC1_PM.c **** * Return:
 125:Generated_Source\PSoC5/ADC1_PM.c **** *  None.
 126:Generated_Source\PSoC5/ADC1_PM.c **** *
 127:Generated_Source\PSoC5/ADC1_PM.c **** * Global Variables:
 128:Generated_Source\PSoC5/ADC1_PM.c **** *  ADC1_backup - The structure field 'enableState' is used to
ARM GAS  C:\Users\Albert\AppData\Local\Temp\ccLiNHXc.s 			page 6


 129:Generated_Source\PSoC5/ADC1_PM.c **** *  restore the enable state of block after wakeup from sleep mode.
 130:Generated_Source\PSoC5/ADC1_PM.c **** *
 131:Generated_Source\PSoC5/ADC1_PM.c **** *******************************************************************************/
 132:Generated_Source\PSoC5/ADC1_PM.c **** void ADC1_Wakeup(void)
 133:Generated_Source\PSoC5/ADC1_PM.c **** {
 157              		.loc 1 133 0
 158              		.cfi_startproc
 159              		@ args = 0, pretend = 0, frame = 0
 160              		@ frame_needed = 1, uses_anonymous_args = 0
 161 0000 80B5     		push	{r7, lr}
 162              		.cfi_def_cfa_offset 8
 163              		.cfi_offset 7, -8
 164              		.cfi_offset 14, -4
 165 0002 00AF     		add	r7, sp, #0
 166              		.cfi_def_cfa_register 7
 134:Generated_Source\PSoC5/ADC1_PM.c ****     if(ADC1_backup.enableState != ADC1_DISABLED)
 167              		.loc 1 134 0
 168 0004 074B     		ldr	r3, .L14
 169 0006 1B78     		ldrb	r3, [r3]	@ zero_extendqisi2
 170 0008 002B     		cmp	r3, #0
 171 000a 09D0     		beq	.L13
 135:Generated_Source\PSoC5/ADC1_PM.c ****     {
 136:Generated_Source\PSoC5/ADC1_PM.c ****         ADC1_Enable();
 172              		.loc 1 136 0
 173 000c FFF7FEFF 		bl	ADC1_Enable
 137:Generated_Source\PSoC5/ADC1_PM.c ****         #if(ADC1_DEFAULT_CONV_MODE != ADC1__HARDWARE_TRIGGER)
 138:Generated_Source\PSoC5/ADC1_PM.c ****             if((ADC1_backup.enableState & ADC1_STARTED) != 0u)
 174              		.loc 1 138 0
 175 0010 044B     		ldr	r3, .L14
 176 0012 1B78     		ldrb	r3, [r3]	@ zero_extendqisi2
 177 0014 03F00203 		and	r3, r3, #2
 178 0018 002B     		cmp	r3, #0
 179 001a 01D0     		beq	.L13
 139:Generated_Source\PSoC5/ADC1_PM.c ****             {
 140:Generated_Source\PSoC5/ADC1_PM.c ****                 ADC1_StartConvert();
 180              		.loc 1 140 0
 181 001c FFF7FEFF 		bl	ADC1_StartConvert
 182              	.L13:
 141:Generated_Source\PSoC5/ADC1_PM.c ****             }
 142:Generated_Source\PSoC5/ADC1_PM.c ****         #endif /* End ADC1_DEFAULT_CONV_MODE != ADC1__HARDWARE_TRIGGER */
 143:Generated_Source\PSoC5/ADC1_PM.c ****     }
 144:Generated_Source\PSoC5/ADC1_PM.c **** }
 183              		.loc 1 144 0
 184 0020 00BF     		nop
 185 0022 80BD     		pop	{r7, pc}
 186              	.L15:
 187              		.align	2
 188              	.L14:
 189 0024 00000000 		.word	ADC1_backup
 190              		.cfi_endproc
 191              	.LFE3:
 192              		.size	ADC1_Wakeup, .-ADC1_Wakeup
 193              		.text
 194              	.Letext0:
 195              		.file 2 "Generated_Source\\PSoC5\\cytypes.h"
 196              		.file 3 "Generated_Source\\PSoC5\\ADC1.h"