ARM GAS  C:\Users\Albert\AppData\Local\Temp\ccyTmQvb.s 			page 1


   1              		.syntax unified
   2              		.cpu cortex-m3
   3              		.fpu softvfp
   4              		.eabi_attribute 20, 1
   5              		.eabi_attribute 21, 1
   6              		.eabi_attribute 23, 3
   7              		.eabi_attribute 24, 1
   8              		.eabi_attribute 25, 1
   9              		.eabi_attribute 26, 1
  10              		.eabi_attribute 30, 6
  11              		.eabi_attribute 34, 1
  12              		.eabi_attribute 18, 4
  13              		.thumb
  14              		.syntax unified
  15              		.file	"adcUtil.c"
  16              		.text
  17              	.Ltext0:
  18              		.cfi_sections	.debug_frame
  19              		.section	.text.initADC,"ax",%progbits
  20              		.align	2
  21              		.global	initADC
  22              		.thumb
  23              		.thumb_func
  24              		.type	initADC, %function
  25              	initADC:
  26              	.LFB63:
  27              		.file 1 "adcUtil.c"
   1:adcUtil.c     **** /* ========================================
   2:adcUtil.c     ****  *
   3:adcUtil.c     ****  * Copyright Albert Wu, 2018
   4:adcUtil.c     ****  * All Rights Reserved
   5:adcUtil.c     ****  * UNPUBLISHED, LICENSED SOFTWARE.
   6:adcUtil.c     ****  *
   7:adcUtil.c     ****  * CONFIDENTIAL AND PROPRIETARY INFORMATION
   8:adcUtil.c     ****  * WHICH IS THE PROPERTY OF your company.
   9:adcUtil.c     ****  *
  10:adcUtil.c     ****  * ========================================
  11:adcUtil.c     **** */
  12:adcUtil.c     **** #include "adcUtil.h"
  13:adcUtil.c     **** 
  14:adcUtil.c     **** void initADC()
  15:adcUtil.c     **** {
  28              		.loc 1 15 0
  29              		.cfi_startproc
  30              		@ args = 0, pretend = 0, frame = 0
  31              		@ frame_needed = 1, uses_anonymous_args = 0
  32 0000 80B5     		push	{r7, lr}
  33              		.cfi_def_cfa_offset 8
  34              		.cfi_offset 7, -8
  35              		.cfi_offset 14, -4
  36 0002 00AF     		add	r7, sp, #0
  37              		.cfi_def_cfa_register 7
  16:adcUtil.c     ****     //Initalizes ADCs
  17:adcUtil.c     ****     ADC1_Start();
  38              		.loc 1 17 0
  39 0004 FFF7FEFF 		bl	ADC1_Start
  18:adcUtil.c     ****     ADC1_StartConvert();
ARM GAS  C:\Users\Albert\AppData\Local\Temp\ccyTmQvb.s 			page 2


  40              		.loc 1 18 0
  41 0008 FFF7FEFF 		bl	ADC1_StartConvert
  19:adcUtil.c     ****     ADC2_Start();
  42              		.loc 1 19 0
  43 000c FFF7FEFF 		bl	ADC2_Start
  20:adcUtil.c     ****     ADC2_StartConvert();
  44              		.loc 1 20 0
  45 0010 FFF7FEFF 		bl	ADC2_StartConvert
  21:adcUtil.c     **** }
  46              		.loc 1 21 0
  47 0014 00BF     		nop
  48 0016 80BD     		pop	{r7, pc}
  49              		.cfi_endproc
  50              	.LFE63:
  51              		.size	initADC, .-initADC
  52              		.section	.text.getADCReading,"ax",%progbits
  53              		.align	2
  54              		.global	getADCReading
  55              		.thumb
  56              		.thumb_func
  57              		.type	getADCReading, %function
  58              	getADCReading:
  59              	.LFB64:
  22:adcUtil.c     **** int16 getADCReading(int adcID)
  23:adcUtil.c     **** {
  60              		.loc 1 23 0
  61              		.cfi_startproc
  62              		@ args = 0, pretend = 0, frame = 8
  63              		@ frame_needed = 1, uses_anonymous_args = 0
  64 0000 80B5     		push	{r7, lr}
  65              		.cfi_def_cfa_offset 8
  66              		.cfi_offset 7, -8
  67              		.cfi_offset 14, -4
  68 0002 82B0     		sub	sp, sp, #8
  69              		.cfi_def_cfa_offset 16
  70 0004 00AF     		add	r7, sp, #0
  71              		.cfi_def_cfa_register 7
  72 0006 7860     		str	r0, [r7, #4]
  24:adcUtil.c     ****     switch(adcID)
  73              		.loc 1 24 0
  74 0008 7B68     		ldr	r3, [r7, #4]
  75 000a 012B     		cmp	r3, #1
  76 000c 02D0     		beq	.L4
  77 000e 022B     		cmp	r3, #2
  78 0010 04D0     		beq	.L5
  79 0012 07E0     		b	.L7
  80              	.L4:
  25:adcUtil.c     ****     {
  26:adcUtil.c     ****         case 1:        
  27:adcUtil.c     ****             return ADC1_GetResult16();
  81              		.loc 1 27 0
  82 0014 FFF7FEFF 		bl	ADC1_GetResult16
  83 0018 0346     		mov	r3, r0
  84 001a 04E0     		b	.L6
  85              	.L5:
  28:adcUtil.c     ****             break;
  29:adcUtil.c     ****             
ARM GAS  C:\Users\Albert\AppData\Local\Temp\ccyTmQvb.s 			page 3


  30:adcUtil.c     ****         case 2:
  31:adcUtil.c     ****             return ADC2_GetResult16();         
  86              		.loc 1 31 0
  87 001c FFF7FEFF 		bl	ADC2_GetResult16
  88 0020 0346     		mov	r3, r0
  89 0022 00E0     		b	.L6
  90              	.L7:
  32:adcUtil.c     ****             break;
  33:adcUtil.c     ****     }
  34:adcUtil.c     ****     return 0;
  91              		.loc 1 34 0
  92 0024 0023     		movs	r3, #0
  93              	.L6:
  35:adcUtil.c     **** }
  94              		.loc 1 35 0
  95 0026 1846     		mov	r0, r3
  96 0028 0837     		adds	r7, r7, #8
  97              		.cfi_def_cfa_offset 8
  98 002a BD46     		mov	sp, r7
  99              		.cfi_def_cfa_register 13
 100              		@ sp needed
 101 002c 80BD     		pop	{r7, pc}
 102              		.cfi_endproc
 103              	.LFE64:
 104              		.size	getADCReading, .-getADCReading
 105 002e 00BF     		.text
 106              	.Letext0:
 107              		.file 2 "c:\\program files (x86)\\cypress\\psoc creator\\4.2\\psoc creator\\import\\gnu\\arm\\5.4.
 108              		.file 3 "c:\\program files (x86)\\cypress\\psoc creator\\4.2\\psoc creator\\import\\gnu\\arm\\5.4.
 109              		.file 4 "Generated_Source\\PSoC5/cytypes.h"
 110              		.file 5 "Generated_Source\\PSoC5/core_cm3.h"