ARM GAS  C:\Users\Albert\AppData\Local\Temp\cc9r7tZa.s 			page 1


   1              		.syntax unified
   2              		.cpu cortex-m3
   3              		.fpu softvfp
   4              		.eabi_attribute 20, 1
   5              		.eabi_attribute 21, 1
   6              		.eabi_attribute 23, 3
   7              		.eabi_attribute 24, 1
   8              		.eabi_attribute 25, 1
   9              		.eabi_attribute 26, 1
  10              		.eabi_attribute 30, 6
  11              		.eabi_attribute 34, 1
  12              		.eabi_attribute 18, 4
  13              		.thumb
  14              		.syntax unified
  15              		.file	"controllers.c"
  16              		.text
  17              	.Ltext0:
  18              		.cfi_sections	.debug_frame
  19              		.global	__aeabi_dmul
  20              		.global	__aeabi_dadd
  21              		.global	__aeabi_dsub
  22              		.section	.text.lqrController,"ax",%progbits
  23              		.align	2
  24              		.global	lqrController
  25              		.thumb
  26              		.thumb_func
  27              		.type	lqrController, %function
  28              	lqrController:
  29              	.LFB63:
  30              		.file 1 "controllers.c"
   1:controllers.c **** /* ========================================
   2:controllers.c ****  *
   3:controllers.c ****  * Copyright Albert Wu, 2018
   4:controllers.c ****  * All Rights Reserved
   5:controllers.c ****  * UNPUBLISHED, LICENSED SOFTWARE.
   6:controllers.c ****  *
   7:controllers.c ****  * CONFIDENTIAL AND PROPRIETARY INFORMATION
   8:controllers.c ****  * WHICH IS THE PROPERTY OF your company.
   9:controllers.c ****  *
  10:controllers.c ****  * ========================================
  11:controllers.c **** */
  12:controllers.c **** #include <math.h>
  13:controllers.c **** #include "mathUtility.h"
  14:controllers.c **** #include "hardwareParameters.h"
  15:controllers.c **** #include "controlParameters.h"
  16:controllers.c **** #include "hardware.h"
  17:controllers.c **** #include "sensorStructs.h"
  18:controllers.c **** 
  19:controllers.c **** 
  20:controllers.c **** // variables from main.c
  21:controllers.c **** extern MemoryVariable thetaShoulder;
  22:controllers.c **** extern MemoryVariable thetaWheel;
  23:controllers.c **** extern MemoryVariable torque;
  24:controllers.c **** extern double iError;
  25:controllers.c **** //double prevTimeStamp = 0;
  26:controllers.c **** 
  27:controllers.c **** //currently unused
ARM GAS  C:\Users\Albert\AppData\Local\Temp\cc9r7tZa.s 			page 2


  28:controllers.c **** //extern double positiveFreeTorque;
  29:controllers.c **** //extern double negativeFreeTorque;
  30:controllers.c **** 
  31:controllers.c **** double lqrController()
  32:controllers.c **** {   
  31              		.loc 1 32 0
  32              		.cfi_startproc
  33              		@ args = 0, pretend = 0, frame = 48
  34              		@ frame_needed = 1, uses_anonymous_args = 0
  35 0000 2DE9B043 		push	{r4, r5, r7, r8, r9, lr}
  36              		.cfi_def_cfa_offset 24
  37              		.cfi_offset 4, -24
  38              		.cfi_offset 5, -20
  39              		.cfi_offset 7, -16
  40              		.cfi_offset 8, -12
  41              		.cfi_offset 9, -8
  42              		.cfi_offset 14, -4
  43 0004 8CB0     		sub	sp, sp, #48
  44              		.cfi_def_cfa_offset 72
  45 0006 00AF     		add	r7, sp, #0
  46              		.cfi_def_cfa_register 7
  33:controllers.c ****     //returns the target torque
  34:controllers.c ****     double thetaShoulderValue = getValue(&thetaShoulder);
  47              		.loc 1 34 0
  48 0008 3D48     		ldr	r0, .L3+32
  49 000a FFF7FEFF 		bl	getValue
  50 000e C7E90A01 		strd	r0, [r7, #40]
  35:controllers.c ****     double thetaShoulderDot = getDerivativeWithoutUpdate(&thetaShoulder);
  51              		.loc 1 35 0
  52 0012 3B48     		ldr	r0, .L3+32
  53 0014 FFF7FEFF 		bl	getDerivativeWithoutUpdate
  54 0018 C7E90801 		strd	r0, [r7, #32]
  36:controllers.c ****     double thetaWheelDot = getDerivativeWithoutUpdate(&thetaWheel);//cw+ when wheel facing out
  55              		.loc 1 36 0
  56 001c 3948     		ldr	r0, .L3+36
  57 001e FFF7FEFF 		bl	getDerivativeWithoutUpdate
  58 0022 C7E90601 		strd	r0, [r7, #24]
  37:controllers.c ****     //printdouble(thetaShoulderDot*1e2,0);
  38:controllers.c ****     //Offset gain
  39:controllers.c ****     double offset = KSetpoint*thetaWheelDot;
  59              		.loc 1 39 0
  60 0026 2EA3     		adr	r3, .L3
  61 0028 D3E90023 		ldrd	r2, [r3]
  62 002c D7E90601 		ldrd	r0, [r7, #24]
  63 0030 FFF7FEFF 		bl	__aeabi_dmul
  64 0034 0246     		mov	r2, r0
  65 0036 0B46     		mov	r3, r1
  66 0038 C7E90423 		strd	r2, [r7, #16]
  40:controllers.c ****     
  41:controllers.c ****     double wrappedTheta = wrapAngle(thetaShoulderValue-(THETA_SHOULDER_DESIRED+offset));
  67              		.loc 1 41 0
  68 003c 2AA3     		adr	r3, .L3+8
  69 003e D3E90023 		ldrd	r2, [r3]
  70 0042 D7E90401 		ldrd	r0, [r7, #16]
  71 0046 FFF7FEFF 		bl	__aeabi_dadd
  72 004a 0246     		mov	r2, r0
  73 004c 0B46     		mov	r3, r1
ARM GAS  C:\Users\Albert\AppData\Local\Temp\cc9r7tZa.s 			page 3


  74 004e D7E90A01 		ldrd	r0, [r7, #40]
  75 0052 FFF7FEFF 		bl	__aeabi_dsub
  76 0056 0246     		mov	r2, r0
  77 0058 0B46     		mov	r3, r1
  78 005a 1046     		mov	r0, r2
  79 005c 1946     		mov	r1, r3
  80 005e FFF7FEFF 		bl	wrapAngle
  81 0062 C7E90201 		strd	r0, [r7, #8]
  42:controllers.c ****     //double timeDiff = getTime(&thetaShoulder)-prevTimeStamp;    
  43:controllers.c ****     //iError+=wrappedTheta*timeDiff;
  44:controllers.c ****     //prevent windup
  45:controllers.c ****     //iError=max(min(iError,MAX_I_ERR),-MAX_I_ERR);
  46:controllers.c ****     
  47:controllers.c ****     double u = K1*wrappedTheta+K3*thetaShoulderDot+K4*thetaWheelDot;//+KI*iError;
  82              		.loc 1 47 0
  83 0066 22A3     		adr	r3, .L3+16
  84 0068 D3E90023 		ldrd	r2, [r3]
  85 006c D7E90201 		ldrd	r0, [r7, #8]
  86 0070 FFF7FEFF 		bl	__aeabi_dmul
  87 0074 0246     		mov	r2, r0
  88 0076 0B46     		mov	r3, r1
  89 0078 9046     		mov	r8, r2
  90 007a 9946     		mov	r9, r3
  91 007c 1EA3     		adr	r3, .L3+24
  92 007e D3E90023 		ldrd	r2, [r3]
  93 0082 D7E90801 		ldrd	r0, [r7, #32]
  94 0086 FFF7FEFF 		bl	__aeabi_dmul
  95 008a 0246     		mov	r2, r0
  96 008c 0B46     		mov	r3, r1
  97 008e 4046     		mov	r0, r8
  98 0090 4946     		mov	r1, r9
  99 0092 FFF7FEFF 		bl	__aeabi_dadd
 100 0096 0246     		mov	r2, r0
 101 0098 0B46     		mov	r3, r1
 102 009a 9046     		mov	r8, r2
 103 009c 9946     		mov	r9, r3
 104 009e 4FF00002 		mov	r2, #0
 105 00a2 4FF00003 		mov	r3, #0
 106 00a6 D7E90601 		ldrd	r0, [r7, #24]
 107 00aa FFF7FEFF 		bl	__aeabi_dmul
 108 00ae 0246     		mov	r2, r0
 109 00b0 0B46     		mov	r3, r1
 110 00b2 4046     		mov	r0, r8
 111 00b4 4946     		mov	r1, r9
 112 00b6 FFF7FEFF 		bl	__aeabi_dadd
 113 00ba 0246     		mov	r2, r0
 114 00bc 0B46     		mov	r3, r1
 115 00be C7E90023 		strd	r2, [r7]
  48:controllers.c ****     //prevTimeStamp = getTime(&thetaShoulder);
  49:controllers.c ****     
  50:controllers.c ****     //double u = K3*thetaShoulderDot;
  51:controllers.c ****     return -u;
 116              		.loc 1 51 0
 117 00c2 3C68     		ldr	r4, [r7]
 118 00c4 7B68     		ldr	r3, [r7, #4]
 119 00c6 83F00045 		eor	r5, r3, #-2147483648
 120 00ca 2346     		mov	r3, r4
ARM GAS  C:\Users\Albert\AppData\Local\Temp\cc9r7tZa.s 			page 4


 121 00cc 2C46     		mov	r4, r5
  52:controllers.c **** }
 122              		.loc 1 52 0
 123 00ce 1846     		mov	r0, r3
 124 00d0 2146     		mov	r1, r4
 125 00d2 3037     		adds	r7, r7, #48
 126              		.cfi_def_cfa_offset 24
 127 00d4 BD46     		mov	sp, r7
 128              		.cfi_def_cfa_register 13
 129              		@ sp needed
 130 00d6 BDE8B083 		pop	{r4, r5, r7, r8, r9, pc}
 131              	.L4:
 132 00da 00BFAFF3 		.align	3
 132      0080
 133              	.L3:
 134 00e0 DE0033DF 		.word	-550305570
 135 00e4 C14F2C3F 		.word	1059868609
 136 00e8 182D4454 		.word	1413754136
 137 00ec FB210940 		.word	1074340347
 138 00f0 F5DBD781 		.word	-2116559883
 139 00f4 7346DC3F 		.word	1071400563
 140 00f8 6744696F 		.word	1869169767
 141 00fc F085C13F 		.word	1069647344
 142 0100 00000000 		.word	thetaShoulder
 143 0104 00000000 		.word	thetaWheel
 144              		.cfi_endproc
 145              	.LFE63:
 146              		.size	lqrController, .-lqrController
 147              		.global	temp
 148              		.bss
 149              		.align	3
 150              		.type	temp, %object
 151              		.size	temp, 8
 152              	temp:
 153 0000 00000000 		.space	8
 153      00000000 
 154              		.global	__aeabi_dcmpgt
 155              		.global	__aeabi_d2iz
 156              		.global	__aeabi_i2d
 157              		.section	.text.energyController,"ax",%progbits
 158              		.align	2
 159              		.global	energyController
 160              		.thumb
 161              		.thumb_func
 162              		.type	energyController, %function
 163              	energyController:
 164              	.LFB64:
  53:controllers.c **** double temp=0;
  54:controllers.c **** double energyController()
  55:controllers.c **** {
 165              		.loc 1 55 0
 166              		.cfi_startproc
 167              		@ args = 0, pretend = 0, frame = 56
 168              		@ frame_needed = 1, uses_anonymous_args = 0
 169 0000 90B5     		push	{r4, r7, lr}
 170              		.cfi_def_cfa_offset 12
 171              		.cfi_offset 4, -12
ARM GAS  C:\Users\Albert\AppData\Local\Temp\cc9r7tZa.s 			page 5


 172              		.cfi_offset 7, -8
 173              		.cfi_offset 14, -4
 174 0002 8FB0     		sub	sp, sp, #60
 175              		.cfi_def_cfa_offset 72
 176 0004 00AF     		add	r7, sp, #0
 177              		.cfi_def_cfa_register 7
  56:controllers.c **** 
  57:controllers.c ****     double thetaShoulderValue = wrapAngle(getValue(&thetaShoulder));
 178              		.loc 1 57 0
 179 0006 3E48     		ldr	r0, .L12+24
 180 0008 FFF7FEFF 		bl	getValue
 181 000c 0346     		mov	r3, r0
 182 000e 0C46     		mov	r4, r1
 183 0010 1846     		mov	r0, r3
 184 0012 2146     		mov	r1, r4
 185 0014 FFF7FEFF 		bl	wrapAngle
 186 0018 C7E90C01 		strd	r0, [r7, #48]
  58:controllers.c ****     double thetaShoulderDot = getDerivativeWithoutUpdate(&thetaShoulder);
 187              		.loc 1 58 0
 188 001c 3848     		ldr	r0, .L12+24
 189 001e FFF7FEFF 		bl	getDerivativeWithoutUpdate
 190 0022 C7E90A01 		strd	r0, [r7, #40]
  59:controllers.c ****     //Compensation term for gravity 
  60:controllers.c ****     
  61:controllers.c ****     //Calculate current energy
  62:controllers.c ****     double kineticE = 0.5*INERTIA_ABOUT_SHOULDER*pow(thetaShoulderDot,2);
 191              		.loc 1 62 0
 192 0026 4FF00002 		mov	r2, #0
 193 002a 4FF08043 		mov	r3, #1073741824
 194 002e D7E90A01 		ldrd	r0, [r7, #40]
 195 0032 FFF7FEFF 		bl	pow
 196 0036 2CA3     		adr	r3, .L12
 197 0038 D3E90023 		ldrd	r2, [r3]
 198 003c FFF7FEFF 		bl	__aeabi_dmul
 199 0040 0346     		mov	r3, r0
 200 0042 0C46     		mov	r4, r1
 201 0044 C7E90834 		strd	r3, [r7, #32]
  63:controllers.c ****     double potentialE = -GRAVITY_MOMENT*G*cos(thetaShoulderValue);
 202              		.loc 1 63 0
 203 0048 D7E90C01 		ldrd	r0, [r7, #48]
 204 004c FFF7FEFF 		bl	cos
 205 0050 27A3     		adr	r3, .L12+8
 206 0052 D3E90023 		ldrd	r2, [r3]
 207 0056 FFF7FEFF 		bl	__aeabi_dmul
 208 005a 0346     		mov	r3, r0
 209 005c 0C46     		mov	r4, r1
 210 005e C7E90634 		strd	r3, [r7, #24]
  64:controllers.c ****     double totalE = kineticE + potentialE;    
 211              		.loc 1 64 0
 212 0062 D7E90623 		ldrd	r2, [r7, #24]
 213 0066 D7E90801 		ldrd	r0, [r7, #32]
 214 006a FFF7FEFF 		bl	__aeabi_dadd
 215 006e 0346     		mov	r3, r0
 216 0070 0C46     		mov	r4, r1
 217 0072 C7E90434 		strd	r3, [r7, #16]
  65:controllers.c ****     double energyDiff = totalE-(GRAVITY_MOMENT*G+E_OFFSET);
 218              		.loc 1 65 0
ARM GAS  C:\Users\Albert\AppData\Local\Temp\cc9r7tZa.s 			page 6


 219 0076 20A3     		adr	r3, .L12+16
 220 0078 D3E90023 		ldrd	r2, [r3]
 221 007c D7E90401 		ldrd	r0, [r7, #16]
 222 0080 FFF7FEFF 		bl	__aeabi_dsub
 223 0084 0346     		mov	r3, r0
 224 0086 0C46     		mov	r4, r1
 225 0088 C7E90234 		strd	r3, [r7, #8]
  66:controllers.c **** /*
  67:controllers.c ****     temp = max(temp,totalE);
  68:controllers.c **** 
  69:controllers.c ****     double b = GRAVITY_MOMENT*G*sin(thetaShoulderValue);
  70:controllers.c ****     
  71:controllers.c ****     double u = -b-INERTIA_ABOUT_SHOULDER*b/(INERTIA_ABOUT_SHOULDER+I_WHEEL)*Ke*thetaShoulderDot/2*e
  72:controllers.c ****     //return u;
  73:controllers.c **** 
  74:controllers.c **** */
  75:controllers.c ****     //PD energy shaping
  76:controllers.c ****     int direction = thetaShoulderDot>0?-1:1;
 226              		.loc 1 76 0
 227 008c 4FF00002 		mov	r2, #0
 228 0090 4FF00003 		mov	r3, #0
 229 0094 D7E90A01 		ldrd	r0, [r7, #40]
 230 0098 FFF7FEFF 		bl	__aeabi_dcmpgt
 231 009c 0346     		mov	r3, r0
 232 009e 002B     		cmp	r3, #0
 233 00a0 02D0     		beq	.L11
 234              		.loc 1 76 0 is_stmt 0 discriminator 1
 235 00a2 4FF0FF33 		mov	r3, #-1
 236 00a6 00E0     		b	.L8
 237              	.L11:
 238              		.loc 1 76 0 discriminator 2
 239 00a8 0123     		movs	r3, #1
 240              	.L8:
 241              		.loc 1 76 0 discriminator 4
 242 00aa 7B60     		str	r3, [r7, #4]
  77:controllers.c ****     int magnitude = KE_P*energyDiff;
 243              		.loc 1 77 0 is_stmt 1 discriminator 4
 244 00ac 4FF00002 		mov	r2, #0
 245 00b0 144B     		ldr	r3, .L12+28
 246 00b2 D7E90201 		ldrd	r0, [r7, #8]
 247 00b6 FFF7FEFF 		bl	__aeabi_dmul
 248 00ba 0346     		mov	r3, r0
 249 00bc 0C46     		mov	r4, r1
 250 00be 1846     		mov	r0, r3
 251 00c0 2146     		mov	r1, r4
 252 00c2 FFF7FEFF 		bl	__aeabi_d2iz
 253 00c6 0346     		mov	r3, r0
 254 00c8 3B60     		str	r3, [r7]
  78:controllers.c ****     //LCD_ClearDisplay();
  79:controllers.c ****     //printdouble(direction*magnitude,3);
  80:controllers.c ****     
  81:controllers.c ****     return direction*magnitude;
 255              		.loc 1 81 0 discriminator 4
 256 00ca 7B68     		ldr	r3, [r7, #4]
 257 00cc 3A68     		ldr	r2, [r7]
 258 00ce 02FB03F3 		mul	r3, r2, r3
 259 00d2 1846     		mov	r0, r3
ARM GAS  C:\Users\Albert\AppData\Local\Temp\cc9r7tZa.s 			page 7


 260 00d4 FFF7FEFF 		bl	__aeabi_i2d
 261 00d8 0346     		mov	r3, r0
 262 00da 0C46     		mov	r4, r1
  82:controllers.c ****     //return u;
  83:controllers.c **** }
 263              		.loc 1 83 0 discriminator 4
 264 00dc 1846     		mov	r0, r3
 265 00de 2146     		mov	r1, r4
 266 00e0 3C37     		adds	r7, r7, #60
 267              		.cfi_def_cfa_offset 12
 268 00e2 BD46     		mov	sp, r7
 269              		.cfi_def_cfa_register 13
 270              		@ sp needed
 271 00e4 90BD     		pop	{r4, r7, pc}
 272              	.L13:
 273 00e6 00BF     		.align	3
 274              	.L12:
 275 00e8 4A61E7A5 		.word	-1511562934
 276 00ec D42D503F 		.word	1062219220
 277 00f0 2B4F3C41 		.word	1094471467
 278 00f4 4425C7BF 		.word	-1077467836
 279 00f8 C7135DF1 		.word	-245558329
 280 00fc B68DC83F 		.word	1070108086
 281 0100 00000000 		.word	thetaShoulder
 282 0104 00006940 		.word	1080623104
 283              		.cfi_endproc
 284              	.LFE64:
 285              		.size	energyController, .-energyController
 286              		.global	__aeabi_dcmplt
 287              		.section	.text.inLQRRange,"ax",%progbits
 288              		.align	2
 289              		.global	inLQRRange
 290              		.thumb
 291              		.thumb_func
 292              		.type	inLQRRange, %function
 293              	inLQRRange:
 294              	.LFB65:
  84:controllers.c **** 
  85:controllers.c **** _Bool inLQRRange()
  86:controllers.c **** {    
 295              		.loc 1 86 0
 296              		.cfi_startproc
 297              		@ args = 0, pretend = 0, frame = 32
 298              		@ frame_needed = 1, uses_anonymous_args = 0
 299 0000 B0B5     		push	{r4, r5, r7, lr}
 300              		.cfi_def_cfa_offset 16
 301              		.cfi_offset 4, -16
 302              		.cfi_offset 5, -12
 303              		.cfi_offset 7, -8
 304              		.cfi_offset 14, -4
 305 0002 88B0     		sub	sp, sp, #32
 306              		.cfi_def_cfa_offset 48
 307 0004 00AF     		add	r7, sp, #0
 308              		.cfi_def_cfa_register 7
  87:controllers.c ****     double thetaShoulderValue = wrapAngle(getValue(&thetaShoulder));
 309              		.loc 1 87 0
 310 0006 2648     		ldr	r0, .L21+16
ARM GAS  C:\Users\Albert\AppData\Local\Temp\cc9r7tZa.s 			page 8


 311 0008 FFF7FEFF 		bl	getValue
 312 000c 0246     		mov	r2, r0
 313 000e 0B46     		mov	r3, r1
 314 0010 1046     		mov	r0, r2
 315 0012 1946     		mov	r1, r3
 316 0014 FFF7FEFF 		bl	wrapAngle
 317 0018 C7E90601 		strd	r0, [r7, #24]
  88:controllers.c ****     double thetaShoulderDot = getDerivativeWithoutUpdate(&thetaShoulder);
 318              		.loc 1 88 0
 319 001c 2048     		ldr	r0, .L21+16
 320 001e FFF7FEFF 		bl	getDerivativeWithoutUpdate
 321 0022 C7E90401 		strd	r0, [r7, #16]
  89:controllers.c ****     double wrappedTheta = wrapAngle(thetaShoulderValue-THETA_SHOULDER_DESIRED);
 322              		.loc 1 89 0
 323 0026 1AA3     		adr	r3, .L21
 324 0028 D3E90023 		ldrd	r2, [r3]
 325 002c D7E90601 		ldrd	r0, [r7, #24]
 326 0030 FFF7FEFF 		bl	__aeabi_dsub
 327 0034 0246     		mov	r2, r0
 328 0036 0B46     		mov	r3, r1
 329 0038 1046     		mov	r0, r2
 330 003a 1946     		mov	r1, r3
 331 003c FFF7FEFF 		bl	wrapAngle
 332 0040 C7E90201 		strd	r0, [r7, #8]
  90:controllers.c ****     if (fabs(wrappedTheta)<THETA_MAX&&fabs(thetaShoulderDot)<THETADOT_MAX)
 333              		.loc 1 90 0
 334 0044 BB68     		ldr	r3, [r7, #8]
 335 0046 3B60     		str	r3, [r7]
 336 0048 FB68     		ldr	r3, [r7, #12]
 337 004a 23F00043 		bic	r3, r3, #-2147483648
 338 004e 7B60     		str	r3, [r7, #4]
 339 0050 11A3     		adr	r3, .L21+8
 340 0052 D3E90023 		ldrd	r2, [r3]
 341 0056 D7E90001 		ldrd	r0, [r7]
 342 005a FFF7FEFF 		bl	__aeabi_dcmplt
 343 005e 0346     		mov	r3, r0
 344 0060 002B     		cmp	r3, #0
 345 0062 0FD0     		beq	.L15
 346              		.loc 1 90 0 is_stmt 0 discriminator 1
 347 0064 3C69     		ldr	r4, [r7, #16]
 348 0066 7B69     		ldr	r3, [r7, #20]
 349 0068 23F00045 		bic	r5, r3, #-2147483648
 350 006c 4FF00002 		mov	r2, #0
 351 0070 0C4B     		ldr	r3, .L21+20
 352 0072 2046     		mov	r0, r4
 353 0074 2946     		mov	r1, r5
 354 0076 FFF7FEFF 		bl	__aeabi_dcmplt
 355 007a 0346     		mov	r3, r0
 356 007c 002B     		cmp	r3, #0
 357 007e 01D0     		beq	.L15
  91:controllers.c ****     {
  92:controllers.c ****         //Switch to LQR
  93:controllers.c ****         return 1;
 358              		.loc 1 93 0 is_stmt 1
 359 0080 0123     		movs	r3, #1
 360 0082 00E0     		b	.L18
 361              	.L15:
ARM GAS  C:\Users\Albert\AppData\Local\Temp\cc9r7tZa.s 			page 9


  94:controllers.c ****     }
  95:controllers.c ****     
  96:controllers.c ****     return 0;
 362              		.loc 1 96 0
 363 0084 0023     		movs	r3, #0
 364              	.L18:
  97:controllers.c **** }
 365              		.loc 1 97 0
 366 0086 1846     		mov	r0, r3
 367 0088 2037     		adds	r7, r7, #32
 368              		.cfi_def_cfa_offset 16
 369 008a BD46     		mov	sp, r7
 370              		.cfi_def_cfa_register 13
 371              		@ sp needed
 372 008c B0BD     		pop	{r4, r5, r7, pc}
 373              	.L22:
 374 008e 00BF     		.align	3
 375              	.L21:
 376 0090 182D4454 		.word	1413754136
 377 0094 FB210940 		.word	1074340347
 378 0098 7B14AE47 		.word	1202590843
 379 009c E17AC43F 		.word	1069841121
 380 00a0 00000000 		.word	thetaShoulder
 381 00a4 00001440 		.word	1075052544
 382              		.cfi_endproc
 383              	.LFE65:
 384              		.size	inLQRRange, .-inLQRRange
 385              		.global	__aeabi_ddiv
 386              		.section	.text.setTorque,"ax",%progbits
 387              		.align	2
 388              		.global	setTorque
 389              		.thumb
 390              		.thumb_func
 391              		.type	setTorque, %function
 392              	setTorque:
 393              	.LFB66:
  98:controllers.c **** 
  99:controllers.c **** void setTorque(double goalTorque, _Bool feedBack, _Bool feedForward)
 100:controllers.c **** {
 394              		.loc 1 100 0
 395              		.cfi_startproc
 396              		@ args = 0, pretend = 0, frame = 72
 397              		@ frame_needed = 1, uses_anonymous_args = 0
 398 0000 B0B5     		push	{r4, r5, r7, lr}
 399              		.cfi_def_cfa_offset 16
 400              		.cfi_offset 4, -16
 401              		.cfi_offset 5, -12
 402              		.cfi_offset 7, -8
 403              		.cfi_offset 14, -4
 404 0002 92B0     		sub	sp, sp, #72
 405              		.cfi_def_cfa_offset 88
 406 0004 00AF     		add	r7, sp, #0
 407              		.cfi_def_cfa_register 7
 408 0006 C7E90201 		strd	r0, [r7, #8]
 409 000a 1146     		mov	r1, r2
 410 000c 1A46     		mov	r2, r3
 411 000e 0B46     		mov	r3, r1
ARM GAS  C:\Users\Albert\AppData\Local\Temp\cc9r7tZa.s 			page 10


 412 0010 FB71     		strb	r3, [r7, #7]
 413 0012 1346     		mov	r3, r2
 414 0014 BB71     		strb	r3, [r7, #6]
 101:controllers.c ****     //calculate feedfoward component
 102:controllers.c ****     double omegaM = getDerivative(&thetaWheel);
 415              		.loc 1 102 0
 416 0016 7048     		ldr	r0, .L29+32
 417 0018 FFF7FEFF 		bl	getDerivative
 418 001c C7E90E01 		strd	r0, [r7, #56]
 103:controllers.c ****     double uFeedForward = (goalTorque+MOTOR_K_T*MOTOR_K_T*omegaM/MOTOR_R)*MOTOR_R/MOTOR_K_T;
 419              		.loc 1 103 0
 420 0020 65A3     		adr	r3, .L29
 421 0022 D3E90023 		ldrd	r2, [r3]
 422 0026 D7E90E01 		ldrd	r0, [r7, #56]
 423 002a FFF7FEFF 		bl	__aeabi_dmul
 424 002e 0346     		mov	r3, r0
 425 0030 0C46     		mov	r4, r1
 426 0032 1846     		mov	r0, r3
 427 0034 2146     		mov	r1, r4
 428 0036 62A3     		adr	r3, .L29+8
 429 0038 D3E90023 		ldrd	r2, [r3]
 430 003c FFF7FEFF 		bl	__aeabi_ddiv
 431 0040 0346     		mov	r3, r0
 432 0042 0C46     		mov	r4, r1
 433 0044 1846     		mov	r0, r3
 434 0046 2146     		mov	r1, r4
 435 0048 D7E90223 		ldrd	r2, [r7, #8]
 436 004c FFF7FEFF 		bl	__aeabi_dadd
 437 0050 0346     		mov	r3, r0
 438 0052 0C46     		mov	r4, r1
 439 0054 1846     		mov	r0, r3
 440 0056 2146     		mov	r1, r4
 441 0058 59A3     		adr	r3, .L29+8
 442 005a D3E90023 		ldrd	r2, [r3]
 443 005e FFF7FEFF 		bl	__aeabi_dmul
 444 0062 0346     		mov	r3, r0
 445 0064 0C46     		mov	r4, r1
 446 0066 1846     		mov	r0, r3
 447 0068 2146     		mov	r1, r4
 448 006a 57A3     		adr	r3, .L29+16
 449 006c D3E90023 		ldrd	r2, [r3]
 450 0070 FFF7FEFF 		bl	__aeabi_ddiv
 451 0074 0346     		mov	r3, r0
 452 0076 0C46     		mov	r4, r1
 453 0078 C7E90C34 		strd	r3, [r7, #48]
 104:controllers.c ****     
 105:controllers.c ****     //calculate feedback comoponent
 106:controllers.c ****     double measuredTorque = getValue(&torque);
 454              		.loc 1 106 0
 455 007c 5748     		ldr	r0, .L29+36
 456 007e FFF7FEFF 		bl	getValue
 457 0082 C7E90A01 		strd	r0, [r7, #40]
 107:controllers.c ****     double measuredTorqueDeri = getDerivativeWithoutUpdate(&torque);
 458              		.loc 1 107 0
 459 0086 5548     		ldr	r0, .L29+36
 460 0088 FFF7FEFF 		bl	getDerivativeWithoutUpdate
 461 008c C7E90801 		strd	r0, [r7, #32]
ARM GAS  C:\Users\Albert\AppData\Local\Temp\cc9r7tZa.s 			page 11


 108:controllers.c ****     
 109:controllers.c ****     //TODO: I and D
 110:controllers.c ****     double uFeedBack = PID_KP*(goalTorque-measuredTorque)-PID_KD*measuredTorqueDeri;
 462              		.loc 1 110 0
 463 0090 D7E90A23 		ldrd	r2, [r7, #40]
 464 0094 D7E90201 		ldrd	r0, [r7, #8]
 465 0098 FFF7FEFF 		bl	__aeabi_dsub
 466 009c 0346     		mov	r3, r0
 467 009e 0C46     		mov	r4, r1
 468 00a0 1846     		mov	r0, r3
 469 00a2 2146     		mov	r1, r4
 470 00a4 4FF00002 		mov	r2, #0
 471 00a8 4D4B     		ldr	r3, .L29+40
 472 00aa FFF7FEFF 		bl	__aeabi_dmul
 473 00ae 0346     		mov	r3, r0
 474 00b0 0C46     		mov	r4, r1
 475 00b2 2546     		mov	r5, r4
 476 00b4 1C46     		mov	r4, r3
 477 00b6 4FF00002 		mov	r2, #0
 478 00ba 4A4B     		ldr	r3, .L29+44
 479 00bc D7E90801 		ldrd	r0, [r7, #32]
 480 00c0 FFF7FEFF 		bl	__aeabi_dmul
 481 00c4 0246     		mov	r2, r0
 482 00c6 0B46     		mov	r3, r1
 483 00c8 2046     		mov	r0, r4
 484 00ca 2946     		mov	r1, r5
 485 00cc FFF7FEFF 		bl	__aeabi_dsub
 486 00d0 0346     		mov	r3, r0
 487 00d2 0C46     		mov	r4, r1
 488 00d4 C7E90634 		strd	r3, [r7, #24]
 111:controllers.c ****     double totalU = 0;
 489              		.loc 1 111 0
 490 00d8 4FF00003 		mov	r3, #0
 491 00dc 4FF00004 		mov	r4, #0
 492 00e0 C7E91034 		strd	r3, [r7, #64]
 112:controllers.c ****     if(feedForward)
 493              		.loc 1 112 0
 494 00e4 BB79     		ldrb	r3, [r7, #6]	@ zero_extendqisi2
 495 00e6 002B     		cmp	r3, #0
 496 00e8 09D0     		beq	.L24
 113:controllers.c ****     {
 114:controllers.c ****         totalU += uFeedForward;
 497              		.loc 1 114 0
 498 00ea D7E90C23 		ldrd	r2, [r7, #48]
 499 00ee D7E91001 		ldrd	r0, [r7, #64]
 500 00f2 FFF7FEFF 		bl	__aeabi_dadd
 501 00f6 0346     		mov	r3, r0
 502 00f8 0C46     		mov	r4, r1
 503 00fa C7E91034 		strd	r3, [r7, #64]
 504              	.L24:
 115:controllers.c ****     }
 116:controllers.c ****     if(feedBack) 
 505              		.loc 1 116 0
 506 00fe FB79     		ldrb	r3, [r7, #7]	@ zero_extendqisi2
 507 0100 002B     		cmp	r3, #0
 508 0102 09D0     		beq	.L25
 117:controllers.c ****     {
ARM GAS  C:\Users\Albert\AppData\Local\Temp\cc9r7tZa.s 			page 12


 118:controllers.c ****         totalU += uFeedBack;
 509              		.loc 1 118 0
 510 0104 D7E90623 		ldrd	r2, [r7, #24]
 511 0108 D7E91001 		ldrd	r0, [r7, #64]
 512 010c FFF7FEFF 		bl	__aeabi_dadd
 513 0110 0346     		mov	r3, r0
 514 0112 0C46     		mov	r4, r1
 515 0114 C7E91034 		strd	r3, [r7, #64]
 516              	.L25:
 119:controllers.c ****     }
 120:controllers.c ****     
 121:controllers.c ****     
 122:controllers.c ****     //double totalU = uFeedForward;
 123:controllers.c ****     //send torque command
 124:controllers.c ****     int pwm = round(totalU/MOTOR_V_SUPPLY*256);
 517              		.loc 1 124 0
 518 0118 4FF00002 		mov	r2, #0
 519 011c 324B     		ldr	r3, .L29+48
 520 011e D7E91001 		ldrd	r0, [r7, #64]
 521 0122 FFF7FEFF 		bl	__aeabi_ddiv
 522 0126 0346     		mov	r3, r0
 523 0128 0C46     		mov	r4, r1
 524 012a 1846     		mov	r0, r3
 525 012c 2146     		mov	r1, r4
 526 012e 4FF00002 		mov	r2, #0
 527 0132 2E4B     		ldr	r3, .L29+52
 528 0134 FFF7FEFF 		bl	__aeabi_dmul
 529 0138 0346     		mov	r3, r0
 530 013a 0C46     		mov	r4, r1
 531 013c 1846     		mov	r0, r3
 532 013e 2146     		mov	r1, r4
 533 0140 FFF7FEFF 		bl	round
 534 0144 0346     		mov	r3, r0
 535 0146 0C46     		mov	r4, r1
 536 0148 1846     		mov	r0, r3
 537 014a 2146     		mov	r1, r4
 538 014c FFF7FEFF 		bl	__aeabi_d2iz
 539 0150 0346     		mov	r3, r0
 540 0152 7B61     		str	r3, [r7, #20]
 125:controllers.c ****     //Threshold for control action
 126:controllers.c ****     pwm = abs(pwm)>10?pwm:0;
 541              		.loc 1 126 0
 542 0154 7B69     		ldr	r3, [r7, #20]
 543 0156 002B     		cmp	r3, #0
 544 0158 B8BF     		it	lt
 545 015a 5B42     		rsblt	r3, r3, #0
 546 015c 0A2B     		cmp	r3, #10
 547 015e 01DD     		ble	.L26
 548              		.loc 1 126 0 is_stmt 0 discriminator 1
 549 0160 7B69     		ldr	r3, [r7, #20]
 550 0162 00E0     		b	.L27
 551              	.L26:
 552              		.loc 1 126 0 discriminator 2
 553 0164 0023     		movs	r3, #0
 554              	.L27:
 555              		.loc 1 126 0 discriminator 4
 556 0166 7B61     		str	r3, [r7, #20]
ARM GAS  C:\Users\Albert\AppData\Local\Temp\cc9r7tZa.s 			page 13


 127:controllers.c ****     _Bool direction = pwm>0?1:0;
 557              		.loc 1 127 0 is_stmt 1 discriminator 4
 558 0168 7B69     		ldr	r3, [r7, #20]
 559 016a 002B     		cmp	r3, #0
 560 016c CCBF     		ite	gt
 561 016e 0123     		movgt	r3, #1
 562 0170 0023     		movle	r3, #0
 563 0172 FB74     		strb	r3, [r7, #19]
 128:controllers.c ****     //Debug
 129:controllers.c ****     //printdouble(pwm,0);
 130:controllers.c ****     sendValue(max(min(abs(pwm),255),0),direction);
 564              		.loc 1 130 0 discriminator 4
 565 0174 7B69     		ldr	r3, [r7, #20]
 566 0176 002B     		cmp	r3, #0
 567 0178 B8BF     		it	lt
 568 017a 5B42     		rsblt	r3, r3, #0
 569 017c 1846     		mov	r0, r3
 570 017e FFF7FEFF 		bl	__aeabi_i2d
 571 0182 13A3     		adr	r3, .L29+24
 572 0184 D3E90023 		ldrd	r2, [r3]
 573 0188 FFF7FEFF 		bl	min
 574 018c 4FF00002 		mov	r2, #0
 575 0190 4FF00003 		mov	r3, #0
 576 0194 FFF7FEFF 		bl	max
 577 0198 0346     		mov	r3, r0
 578 019a 0C46     		mov	r4, r1
 579 019c 1846     		mov	r0, r3
 580 019e 2146     		mov	r1, r4
 581 01a0 FFF7FEFF 		bl	__aeabi_d2iz
 582 01a4 0246     		mov	r2, r0
 583 01a6 FB7C     		ldrb	r3, [r7, #19]	@ zero_extendqisi2
 584 01a8 1946     		mov	r1, r3
 585 01aa 1046     		mov	r0, r2
 586 01ac FFF7FEFF 		bl	sendValue
 131:controllers.c ****     return;
 587              		.loc 1 131 0 discriminator 4
 588 01b0 00BF     		nop
 132:controllers.c **** }
 589              		.loc 1 132 0 discriminator 4
 590 01b2 4837     		adds	r7, r7, #72
 591              		.cfi_def_cfa_offset 16
 592 01b4 BD46     		mov	sp, r7
 593              		.cfi_def_cfa_register 13
 594              		@ sp needed
 595 01b6 B0BD     		pop	{r4, r5, r7, pc}
 596              	.L30:
 597              		.align	3
 598              	.L29:
 599 01b8 8FD23AE4 		.word	-465907057
 600 01bc 45AA183F 		.word	1058581061
 601 01c0 9A999999 		.word	-1717986918
 602 01c4 99991940 		.word	1075419545
 603 01c8 E86A2BF6 		.word	-164926744
 604 01cc 97DD833F 		.word	1065606551
 605 01d0 00000000 		.word	0
 606 01d4 00E06F40 		.word	1081073664
 607 01d8 00000000 		.word	thetaWheel
ARM GAS  C:\Users\Albert\AppData\Local\Temp\cc9r7tZa.s 			page 14


 608 01dc 00000000 		.word	torque
 609 01e0 00003E40 		.word	1077805056
 610 01e4 00002040 		.word	1075838976
 611 01e8 00002840 		.word	1076363264
 612 01ec 00007040 		.word	1081081856
 613              		.cfi_endproc
 614              	.LFE66:
 615              		.size	setTorque, .-setTorque
 616              		.text
 617              	.Letext0:
 618              		.file 2 "c:\\program files (x86)\\cypress\\psoc creator\\4.2\\psoc creator\\import\\gnu\\arm\\5.4.
 619              		.file 3 "c:\\program files (x86)\\cypress\\psoc creator\\4.2\\psoc creator\\import\\gnu\\arm\\5.4.
 620              		.file 4 "sensorStructs.h"
 621              		.file 5 "Generated_Source\\PSoC5/core_cm3.h"
 622              		.file 6 "<built-in>"