ARM GAS  C:\Users\Albert\AppData\Local\Temp\cccAcjU0.s 			page 1


   1              		.syntax unified
   2              		.cpu cortex-m3
   3              		.fpu softvfp
   4              		.eabi_attribute 20, 1
   5              		.eabi_attribute 21, 1
   6              		.eabi_attribute 23, 3
   7              		.eabi_attribute 24, 1
   8              		.eabi_attribute 25, 1
   9              		.eabi_attribute 26, 1
  10              		.eabi_attribute 30, 6
  11              		.eabi_attribute 34, 1
  12              		.eabi_attribute 18, 4
  13              		.thumb
  14              		.syntax unified
  15              		.file	"Counter_1.c"
  16              		.text
  17              	.Ltext0:
  18              		.cfi_sections	.debug_frame
  19              		.global	Counter_1_initVar
  20              		.bss
  21              		.type	Counter_1_initVar, %object
  22              		.size	Counter_1_initVar, 1
  23              	Counter_1_initVar:
  24 0000 00       		.space	1
  25              		.section	.text.Counter_1_Init,"ax",%progbits
  26              		.align	2
  27              		.global	Counter_1_Init
  28              		.thumb
  29              		.thumb_func
  30              		.type	Counter_1_Init, %function
  31              	Counter_1_Init:
  32              	.LFB0:
  33              		.file 1 "Generated_Source\\PSoC5\\Counter_1.c"
   1:Generated_Source\PSoC5/Counter_1.c **** /*******************************************************************************
   2:Generated_Source\PSoC5/Counter_1.c **** * File Name: Counter_1.c  
   3:Generated_Source\PSoC5/Counter_1.c **** * Version 3.0
   4:Generated_Source\PSoC5/Counter_1.c **** *
   5:Generated_Source\PSoC5/Counter_1.c **** *  Description:
   6:Generated_Source\PSoC5/Counter_1.c **** *     The Counter component consists of a 8, 16, 24 or 32-bit counter with
   7:Generated_Source\PSoC5/Counter_1.c **** *     a selectable period between 2 and 2^Width - 1.  
   8:Generated_Source\PSoC5/Counter_1.c **** *
   9:Generated_Source\PSoC5/Counter_1.c **** *   Note:
  10:Generated_Source\PSoC5/Counter_1.c **** *     None
  11:Generated_Source\PSoC5/Counter_1.c **** *
  12:Generated_Source\PSoC5/Counter_1.c **** ********************************************************************************
  13:Generated_Source\PSoC5/Counter_1.c **** * Copyright 2008-2012, Cypress Semiconductor Corporation.  All rights reserved.
  14:Generated_Source\PSoC5/Counter_1.c **** * You may use this file only in accordance with the license, terms, conditions, 
  15:Generated_Source\PSoC5/Counter_1.c **** * disclaimers, and limitations in the end user license agreement accompanying 
  16:Generated_Source\PSoC5/Counter_1.c **** * the software package with which this file was provided.
  17:Generated_Source\PSoC5/Counter_1.c **** *******************************************************************************/
  18:Generated_Source\PSoC5/Counter_1.c **** 
  19:Generated_Source\PSoC5/Counter_1.c **** #include "Counter_1.h"
  20:Generated_Source\PSoC5/Counter_1.c **** 
  21:Generated_Source\PSoC5/Counter_1.c **** uint8 Counter_1_initVar = 0u;
  22:Generated_Source\PSoC5/Counter_1.c **** 
  23:Generated_Source\PSoC5/Counter_1.c **** 
  24:Generated_Source\PSoC5/Counter_1.c **** /*******************************************************************************
ARM GAS  C:\Users\Albert\AppData\Local\Temp\cccAcjU0.s 			page 2


  25:Generated_Source\PSoC5/Counter_1.c **** * Function Name: Counter_1_Init
  26:Generated_Source\PSoC5/Counter_1.c **** ********************************************************************************
  27:Generated_Source\PSoC5/Counter_1.c **** * Summary:
  28:Generated_Source\PSoC5/Counter_1.c **** *     Initialize to the schematic state
  29:Generated_Source\PSoC5/Counter_1.c **** * 
  30:Generated_Source\PSoC5/Counter_1.c **** * Parameters:  
  31:Generated_Source\PSoC5/Counter_1.c **** *  void  
  32:Generated_Source\PSoC5/Counter_1.c **** *
  33:Generated_Source\PSoC5/Counter_1.c **** * Return: 
  34:Generated_Source\PSoC5/Counter_1.c **** *  void
  35:Generated_Source\PSoC5/Counter_1.c **** *
  36:Generated_Source\PSoC5/Counter_1.c **** *******************************************************************************/
  37:Generated_Source\PSoC5/Counter_1.c **** void Counter_1_Init(void) 
  38:Generated_Source\PSoC5/Counter_1.c **** {
  34              		.loc 1 38 0
  35              		.cfi_startproc
  36              		@ args = 0, pretend = 0, frame = 8
  37              		@ frame_needed = 1, uses_anonymous_args = 0
  38 0000 80B5     		push	{r7, lr}
  39              		.cfi_def_cfa_offset 8
  40              		.cfi_offset 7, -8
  41              		.cfi_offset 14, -4
  42 0002 82B0     		sub	sp, sp, #8
  43              		.cfi_def_cfa_offset 16
  44 0004 00AF     		add	r7, sp, #0
  45              		.cfi_def_cfa_register 7
  39:Generated_Source\PSoC5/Counter_1.c ****         #if (!Counter_1_UsingFixedFunction && !Counter_1_ControlRegRemoved)
  40:Generated_Source\PSoC5/Counter_1.c ****             uint8 ctrl;
  41:Generated_Source\PSoC5/Counter_1.c ****         #endif /* (!Counter_1_UsingFixedFunction && !Counter_1_ControlRegRemoved) */
  42:Generated_Source\PSoC5/Counter_1.c ****         
  43:Generated_Source\PSoC5/Counter_1.c ****         #if(!Counter_1_UsingFixedFunction) 
  44:Generated_Source\PSoC5/Counter_1.c ****             /* Interrupt State Backup for Critical Region*/
  45:Generated_Source\PSoC5/Counter_1.c ****             uint8 Counter_1_interruptState;
  46:Generated_Source\PSoC5/Counter_1.c ****         #endif /* (!Counter_1_UsingFixedFunction) */
  47:Generated_Source\PSoC5/Counter_1.c ****         
  48:Generated_Source\PSoC5/Counter_1.c ****         #if (Counter_1_UsingFixedFunction)
  49:Generated_Source\PSoC5/Counter_1.c ****             /* Clear all bits but the enable bit (if it's already set for Timer operation */
  50:Generated_Source\PSoC5/Counter_1.c ****             Counter_1_CONTROL &= Counter_1_CTRL_ENABLE;
  51:Generated_Source\PSoC5/Counter_1.c ****             
  52:Generated_Source\PSoC5/Counter_1.c ****             /* Clear the mode bits for continuous run mode */
  53:Generated_Source\PSoC5/Counter_1.c ****             #if (CY_PSOC5A)
  54:Generated_Source\PSoC5/Counter_1.c ****                 Counter_1_CONTROL2 &= ((uint8)(~Counter_1_CTRL_MODE_MASK));
  55:Generated_Source\PSoC5/Counter_1.c ****             #endif /* (CY_PSOC5A) */
  56:Generated_Source\PSoC5/Counter_1.c ****             #if (CY_PSOC3 || CY_PSOC5LP)
  57:Generated_Source\PSoC5/Counter_1.c ****                 Counter_1_CONTROL3 &= ((uint8)(~Counter_1_CTRL_MODE_MASK));                
  58:Generated_Source\PSoC5/Counter_1.c ****             #endif /* (CY_PSOC3 || CY_PSOC5LP) */
  59:Generated_Source\PSoC5/Counter_1.c ****             /* Check if One Shot mode is enabled i.e. RunMode !=0*/
  60:Generated_Source\PSoC5/Counter_1.c ****             #if (Counter_1_RunModeUsed != 0x0u)
  61:Generated_Source\PSoC5/Counter_1.c ****                 /* Set 3rd bit of Control register to enable one shot mode */
  62:Generated_Source\PSoC5/Counter_1.c ****                 Counter_1_CONTROL |= Counter_1_ONESHOT;
  63:Generated_Source\PSoC5/Counter_1.c ****             #endif /* (Counter_1_RunModeUsed != 0x0u) */
  64:Generated_Source\PSoC5/Counter_1.c ****             
  65:Generated_Source\PSoC5/Counter_1.c ****             /* Set the IRQ to use the status register interrupts */
  66:Generated_Source\PSoC5/Counter_1.c ****             Counter_1_CONTROL2 |= Counter_1_CTRL2_IRQ_SEL;
  67:Generated_Source\PSoC5/Counter_1.c ****             
  68:Generated_Source\PSoC5/Counter_1.c ****             /* Clear and Set SYNCTC and SYNCCMP bits of RT1 register */
  69:Generated_Source\PSoC5/Counter_1.c ****             Counter_1_RT1 &= ((uint8)(~Counter_1_RT1_MASK));
ARM GAS  C:\Users\Albert\AppData\Local\Temp\cccAcjU0.s 			page 3


  70:Generated_Source\PSoC5/Counter_1.c ****             Counter_1_RT1 |= Counter_1_SYNC;     
  71:Generated_Source\PSoC5/Counter_1.c ****                     
  72:Generated_Source\PSoC5/Counter_1.c ****             /*Enable DSI Sync all all inputs of the Timer*/
  73:Generated_Source\PSoC5/Counter_1.c ****             Counter_1_RT1 &= ((uint8)(~Counter_1_SYNCDSI_MASK));
  74:Generated_Source\PSoC5/Counter_1.c ****             Counter_1_RT1 |= Counter_1_SYNCDSI_EN;
  75:Generated_Source\PSoC5/Counter_1.c **** 
  76:Generated_Source\PSoC5/Counter_1.c ****         #else
  77:Generated_Source\PSoC5/Counter_1.c ****             #if(!Counter_1_ControlRegRemoved)
  78:Generated_Source\PSoC5/Counter_1.c ****             /* Set the default compare mode defined in the parameter */
  79:Generated_Source\PSoC5/Counter_1.c ****             ctrl = Counter_1_CONTROL & ((uint8)(~Counter_1_CTRL_CMPMODE_MASK));
  46              		.loc 1 79 0
  47 0006 1D4B     		ldr	r3, .L2
  48 0008 1B78     		ldrb	r3, [r3]
  49 000a DBB2     		uxtb	r3, r3
  50 000c 23F00703 		bic	r3, r3, #7
  51 0010 FB71     		strb	r3, [r7, #7]
  80:Generated_Source\PSoC5/Counter_1.c ****             Counter_1_CONTROL = ctrl | Counter_1_DEFAULT_COMPARE_MODE;
  52              		.loc 1 80 0
  53 0012 1A4A     		ldr	r2, .L2
  54 0014 FB79     		ldrb	r3, [r7, #7]
  55 0016 43F00103 		orr	r3, r3, #1
  56 001a DBB2     		uxtb	r3, r3
  57 001c 1370     		strb	r3, [r2]
  81:Generated_Source\PSoC5/Counter_1.c ****             
  82:Generated_Source\PSoC5/Counter_1.c ****             /* Set the default capture mode defined in the parameter */
  83:Generated_Source\PSoC5/Counter_1.c ****             ctrl = Counter_1_CONTROL & ((uint8)(~Counter_1_CTRL_CAPMODE_MASK));
  58              		.loc 1 83 0
  59 001e 174B     		ldr	r3, .L2
  60 0020 1B78     		ldrb	r3, [r3]
  61 0022 DBB2     		uxtb	r3, r3
  62 0024 23F00303 		bic	r3, r3, #3
  63 0028 FB71     		strb	r3, [r7, #7]
  84:Generated_Source\PSoC5/Counter_1.c ****             
  85:Generated_Source\PSoC5/Counter_1.c ****             #if( 0 != Counter_1_CAPTURE_MODE_CONF)
  86:Generated_Source\PSoC5/Counter_1.c ****                 Counter_1_CONTROL = ctrl | Counter_1_DEFAULT_CAPTURE_MODE;
  87:Generated_Source\PSoC5/Counter_1.c ****             #else
  88:Generated_Source\PSoC5/Counter_1.c ****                 Counter_1_CONTROL = ctrl;
  64              		.loc 1 88 0
  65 002a 144A     		ldr	r2, .L2
  66 002c FB79     		ldrb	r3, [r7, #7]
  67 002e 1370     		strb	r3, [r2]
  89:Generated_Source\PSoC5/Counter_1.c ****             #endif /* 0 != Counter_1_CAPTURE_MODE */ 
  90:Generated_Source\PSoC5/Counter_1.c ****             
  91:Generated_Source\PSoC5/Counter_1.c ****             #endif /* (!Counter_1_ControlRegRemoved) */
  92:Generated_Source\PSoC5/Counter_1.c ****         #endif /* (Counter_1_UsingFixedFunction) */
  93:Generated_Source\PSoC5/Counter_1.c ****         
  94:Generated_Source\PSoC5/Counter_1.c ****         /* Clear all data in the FIFO's */
  95:Generated_Source\PSoC5/Counter_1.c ****         #if (!Counter_1_UsingFixedFunction)
  96:Generated_Source\PSoC5/Counter_1.c ****             Counter_1_ClearFIFO();
  68              		.loc 1 96 0
  69 0030 FFF7FEFF 		bl	Counter_1_ClearFIFO
  97:Generated_Source\PSoC5/Counter_1.c ****         #endif /* (!Counter_1_UsingFixedFunction) */
  98:Generated_Source\PSoC5/Counter_1.c ****         
  99:Generated_Source\PSoC5/Counter_1.c ****         /* Set Initial values from Configuration */
 100:Generated_Source\PSoC5/Counter_1.c ****         Counter_1_WritePeriod(Counter_1_INIT_PERIOD_VALUE);
  70              		.loc 1 100 0
  71 0034 6FF00100 		mvn	r0, #1
ARM GAS  C:\Users\Albert\AppData\Local\Temp\cccAcjU0.s 			page 4


  72 0038 FFF7FEFF 		bl	Counter_1_WritePeriod
 101:Generated_Source\PSoC5/Counter_1.c ****         #if (!(Counter_1_UsingFixedFunction && (CY_PSOC5A)))
 102:Generated_Source\PSoC5/Counter_1.c ****             Counter_1_WriteCounter(Counter_1_INIT_COUNTER_VALUE);
  73              		.loc 1 102 0
  74 003c 0020     		movs	r0, #0
  75 003e FFF7FEFF 		bl	Counter_1_WriteCounter
 103:Generated_Source\PSoC5/Counter_1.c ****         #endif /* (!(Counter_1_UsingFixedFunction && (CY_PSOC5A))) */
 104:Generated_Source\PSoC5/Counter_1.c ****         Counter_1_SetInterruptMode(Counter_1_INIT_INTERRUPTS_MASK);
  76              		.loc 1 104 0
  77 0042 0020     		movs	r0, #0
  78 0044 FFF7FEFF 		bl	Counter_1_SetInterruptMode
 105:Generated_Source\PSoC5/Counter_1.c ****         
 106:Generated_Source\PSoC5/Counter_1.c ****         #if (!Counter_1_UsingFixedFunction)
 107:Generated_Source\PSoC5/Counter_1.c ****             /* Read the status register to clear the unwanted interrupts */
 108:Generated_Source\PSoC5/Counter_1.c ****             (void)Counter_1_ReadStatusRegister();
  79              		.loc 1 108 0
  80 0048 FFF7FEFF 		bl	Counter_1_ReadStatusRegister
 109:Generated_Source\PSoC5/Counter_1.c ****             /* Set the compare value (only available to non-fixed function implementation */
 110:Generated_Source\PSoC5/Counter_1.c ****             Counter_1_WriteCompare(Counter_1_INIT_COMPARE_VALUE);
  81              		.loc 1 110 0
  82 004c 8020     		movs	r0, #128
  83 004e FFF7FEFF 		bl	Counter_1_WriteCompare
 111:Generated_Source\PSoC5/Counter_1.c ****             /* Use the interrupt output of the status register for IRQ output */
 112:Generated_Source\PSoC5/Counter_1.c ****             
 113:Generated_Source\PSoC5/Counter_1.c ****             /* CyEnterCriticalRegion and CyExitCriticalRegion are used to mark following region cri
 114:Generated_Source\PSoC5/Counter_1.c ****             /* Enter Critical Region*/
 115:Generated_Source\PSoC5/Counter_1.c ****             Counter_1_interruptState = CyEnterCriticalSection();
  84              		.loc 1 115 0
  85 0052 FFF7FEFF 		bl	CyEnterCriticalSection
  86 0056 0346     		mov	r3, r0
  87 0058 BB71     		strb	r3, [r7, #6]
 116:Generated_Source\PSoC5/Counter_1.c ****             
 117:Generated_Source\PSoC5/Counter_1.c ****             Counter_1_STATUS_AUX_CTRL |= Counter_1_STATUS_ACTL_INT_EN_MASK;
  88              		.loc 1 117 0
  89 005a 094A     		ldr	r2, .L2+4
  90 005c 084B     		ldr	r3, .L2+4
  91 005e 1B78     		ldrb	r3, [r3]
  92 0060 DBB2     		uxtb	r3, r3
  93 0062 43F01003 		orr	r3, r3, #16
  94 0066 DBB2     		uxtb	r3, r3
  95 0068 1370     		strb	r3, [r2]
 118:Generated_Source\PSoC5/Counter_1.c ****             
 119:Generated_Source\PSoC5/Counter_1.c ****             /* Exit Critical Region*/
 120:Generated_Source\PSoC5/Counter_1.c ****             CyExitCriticalSection(Counter_1_interruptState);
  96              		.loc 1 120 0
  97 006a BB79     		ldrb	r3, [r7, #6]	@ zero_extendqisi2
  98 006c 1846     		mov	r0, r3
  99 006e FFF7FEFF 		bl	CyExitCriticalSection
 121:Generated_Source\PSoC5/Counter_1.c ****             
 122:Generated_Source\PSoC5/Counter_1.c ****         #endif /* (!Counter_1_UsingFixedFunction) */
 123:Generated_Source\PSoC5/Counter_1.c **** }
 100              		.loc 1 123 0
 101 0072 00BF     		nop
 102 0074 0837     		adds	r7, r7, #8
 103              		.cfi_def_cfa_offset 8
 104 0076 BD46     		mov	sp, r7
 105              		.cfi_def_cfa_register 13
ARM GAS  C:\Users\Albert\AppData\Local\Temp\cccAcjU0.s 			page 5


 106              		@ sp needed
 107 0078 80BD     		pop	{r7, pc}
 108              	.L3:
 109 007a 00BF     		.align	2
 110              	.L2:
 111 007c 76640040 		.word	1073767542
 112 0080 97650040 		.word	1073767831
 113              		.cfi_endproc
 114              	.LFE0:
 115              		.size	Counter_1_Init, .-Counter_1_Init
 116              		.section	.text.Counter_1_Enable,"ax",%progbits
 117              		.align	2
 118              		.global	Counter_1_Enable
 119              		.thumb
 120              		.thumb_func
 121              		.type	Counter_1_Enable, %function
 122              	Counter_1_Enable:
 123              	.LFB1:
 124:Generated_Source\PSoC5/Counter_1.c **** 
 125:Generated_Source\PSoC5/Counter_1.c **** 
 126:Generated_Source\PSoC5/Counter_1.c **** /*******************************************************************************
 127:Generated_Source\PSoC5/Counter_1.c **** * Function Name: Counter_1_Enable
 128:Generated_Source\PSoC5/Counter_1.c **** ********************************************************************************
 129:Generated_Source\PSoC5/Counter_1.c **** * Summary:
 130:Generated_Source\PSoC5/Counter_1.c **** *     Enable the Counter
 131:Generated_Source\PSoC5/Counter_1.c **** * 
 132:Generated_Source\PSoC5/Counter_1.c **** * Parameters:  
 133:Generated_Source\PSoC5/Counter_1.c **** *  void  
 134:Generated_Source\PSoC5/Counter_1.c **** *
 135:Generated_Source\PSoC5/Counter_1.c **** * Return: 
 136:Generated_Source\PSoC5/Counter_1.c **** *  void
 137:Generated_Source\PSoC5/Counter_1.c **** *
 138:Generated_Source\PSoC5/Counter_1.c **** * Side Effects: 
 139:Generated_Source\PSoC5/Counter_1.c **** *   If the Enable mode is set to Hardware only then this function has no effect 
 140:Generated_Source\PSoC5/Counter_1.c **** *   on the operation of the counter.
 141:Generated_Source\PSoC5/Counter_1.c **** *
 142:Generated_Source\PSoC5/Counter_1.c **** *******************************************************************************/
 143:Generated_Source\PSoC5/Counter_1.c **** void Counter_1_Enable(void) 
 144:Generated_Source\PSoC5/Counter_1.c **** {
 124              		.loc 1 144 0
 125              		.cfi_startproc
 126              		@ args = 0, pretend = 0, frame = 0
 127              		@ frame_needed = 1, uses_anonymous_args = 0
 128              		@ link register save eliminated.
 129 0000 80B4     		push	{r7}
 130              		.cfi_def_cfa_offset 4
 131              		.cfi_offset 7, -4
 132 0002 00AF     		add	r7, sp, #0
 133              		.cfi_def_cfa_register 7
 145:Generated_Source\PSoC5/Counter_1.c ****     /* Globally Enable the Fixed Function Block chosen */
 146:Generated_Source\PSoC5/Counter_1.c ****     #if (Counter_1_UsingFixedFunction)
 147:Generated_Source\PSoC5/Counter_1.c ****         Counter_1_GLOBAL_ENABLE |= Counter_1_BLOCK_EN_MASK;
 148:Generated_Source\PSoC5/Counter_1.c ****         Counter_1_GLOBAL_STBY_ENABLE |= Counter_1_BLOCK_STBY_EN_MASK;
 149:Generated_Source\PSoC5/Counter_1.c ****     #endif /* (Counter_1_UsingFixedFunction) */  
 150:Generated_Source\PSoC5/Counter_1.c ****         
 151:Generated_Source\PSoC5/Counter_1.c ****     /* Enable the counter from the control register  */
 152:Generated_Source\PSoC5/Counter_1.c ****     /* If Fixed Function then make sure Mode is set correctly */
ARM GAS  C:\Users\Albert\AppData\Local\Temp\cccAcjU0.s 			page 6


 153:Generated_Source\PSoC5/Counter_1.c ****     /* else make sure reset is clear */
 154:Generated_Source\PSoC5/Counter_1.c ****     #if(!Counter_1_ControlRegRemoved || Counter_1_UsingFixedFunction)
 155:Generated_Source\PSoC5/Counter_1.c ****         Counter_1_CONTROL |= Counter_1_CTRL_ENABLE;                
 134              		.loc 1 155 0
 135 0004 054A     		ldr	r2, .L5
 136 0006 054B     		ldr	r3, .L5
 137 0008 1B78     		ldrb	r3, [r3]
 138 000a DBB2     		uxtb	r3, r3
 139 000c 63F07F03 		orn	r3, r3, #127
 140 0010 DBB2     		uxtb	r3, r3
 141 0012 1370     		strb	r3, [r2]
 156:Generated_Source\PSoC5/Counter_1.c ****     #endif /* (!Counter_1_ControlRegRemoved || Counter_1_UsingFixedFunction) */
 157:Generated_Source\PSoC5/Counter_1.c ****     
 158:Generated_Source\PSoC5/Counter_1.c **** }
 142              		.loc 1 158 0
 143 0014 00BF     		nop
 144 0016 BD46     		mov	sp, r7
 145              		.cfi_def_cfa_register 13
 146              		@ sp needed
 147 0018 80BC     		pop	{r7}
 148              		.cfi_restore 7
 149              		.cfi_def_cfa_offset 0
 150 001a 7047     		bx	lr
 151              	.L6:
 152              		.align	2
 153              	.L5:
 154 001c 76640040 		.word	1073767542
 155              		.cfi_endproc
 156              	.LFE1:
 157              		.size	Counter_1_Enable, .-Counter_1_Enable
 158              		.section	.text.Counter_1_Start,"ax",%progbits
 159              		.align	2
 160              		.global	Counter_1_Start
 161              		.thumb
 162              		.thumb_func
 163              		.type	Counter_1_Start, %function
 164              	Counter_1_Start:
 165              	.LFB2:
 159:Generated_Source\PSoC5/Counter_1.c **** 
 160:Generated_Source\PSoC5/Counter_1.c **** 
 161:Generated_Source\PSoC5/Counter_1.c **** /*******************************************************************************
 162:Generated_Source\PSoC5/Counter_1.c **** * Function Name: Counter_1_Start
 163:Generated_Source\PSoC5/Counter_1.c **** ********************************************************************************
 164:Generated_Source\PSoC5/Counter_1.c **** * Summary:
 165:Generated_Source\PSoC5/Counter_1.c **** *  Enables the counter for operation 
 166:Generated_Source\PSoC5/Counter_1.c **** *
 167:Generated_Source\PSoC5/Counter_1.c **** * Parameters:  
 168:Generated_Source\PSoC5/Counter_1.c **** *  void  
 169:Generated_Source\PSoC5/Counter_1.c **** *
 170:Generated_Source\PSoC5/Counter_1.c **** * Return: 
 171:Generated_Source\PSoC5/Counter_1.c **** *  void
 172:Generated_Source\PSoC5/Counter_1.c **** *
 173:Generated_Source\PSoC5/Counter_1.c **** * Global variables:
 174:Generated_Source\PSoC5/Counter_1.c **** *  Counter_1_initVar: Is modified when this function is called for the  
 175:Generated_Source\PSoC5/Counter_1.c **** *   first time. Is used to ensure that initialization happens only once.
 176:Generated_Source\PSoC5/Counter_1.c **** *
 177:Generated_Source\PSoC5/Counter_1.c **** *******************************************************************************/
ARM GAS  C:\Users\Albert\AppData\Local\Temp\cccAcjU0.s 			page 7


 178:Generated_Source\PSoC5/Counter_1.c **** void Counter_1_Start(void) 
 179:Generated_Source\PSoC5/Counter_1.c **** {
 166              		.loc 1 179 0
 167              		.cfi_startproc
 168              		@ args = 0, pretend = 0, frame = 0
 169              		@ frame_needed = 1, uses_anonymous_args = 0
 170 0000 80B5     		push	{r7, lr}
 171              		.cfi_def_cfa_offset 8
 172              		.cfi_offset 7, -8
 173              		.cfi_offset 14, -4
 174 0002 00AF     		add	r7, sp, #0
 175              		.cfi_def_cfa_register 7
 180:Generated_Source\PSoC5/Counter_1.c ****     if(Counter_1_initVar == 0u)
 176              		.loc 1 180 0
 177 0004 064B     		ldr	r3, .L9
 178 0006 1B78     		ldrb	r3, [r3]	@ zero_extendqisi2
 179 0008 002B     		cmp	r3, #0
 180 000a 04D1     		bne	.L8
 181:Generated_Source\PSoC5/Counter_1.c ****     {
 182:Generated_Source\PSoC5/Counter_1.c ****         Counter_1_Init();
 181              		.loc 1 182 0
 182 000c FFF7FEFF 		bl	Counter_1_Init
 183:Generated_Source\PSoC5/Counter_1.c ****         
 184:Generated_Source\PSoC5/Counter_1.c ****         Counter_1_initVar = 1u; /* Clear this bit for Initialization */        
 183              		.loc 1 184 0
 184 0010 034B     		ldr	r3, .L9
 185 0012 0122     		movs	r2, #1
 186 0014 1A70     		strb	r2, [r3]
 187              	.L8:
 185:Generated_Source\PSoC5/Counter_1.c ****     }
 186:Generated_Source\PSoC5/Counter_1.c ****     
 187:Generated_Source\PSoC5/Counter_1.c ****     /* Enable the Counter */
 188:Generated_Source\PSoC5/Counter_1.c ****     Counter_1_Enable();        
 188              		.loc 1 188 0
 189 0016 FFF7FEFF 		bl	Counter_1_Enable
 189:Generated_Source\PSoC5/Counter_1.c **** }
 190              		.loc 1 189 0
 191 001a 00BF     		nop
 192 001c 80BD     		pop	{r7, pc}
 193              	.L10:
 194 001e 00BF     		.align	2
 195              	.L9:
 196 0020 00000000 		.word	Counter_1_initVar
 197              		.cfi_endproc
 198              	.LFE2:
 199              		.size	Counter_1_Start, .-Counter_1_Start
 200              		.section	.text.Counter_1_Stop,"ax",%progbits
 201              		.align	2
 202              		.global	Counter_1_Stop
 203              		.thumb
 204              		.thumb_func
 205              		.type	Counter_1_Stop, %function
 206              	Counter_1_Stop:
 207              	.LFB3:
 190:Generated_Source\PSoC5/Counter_1.c **** 
 191:Generated_Source\PSoC5/Counter_1.c **** 
 192:Generated_Source\PSoC5/Counter_1.c **** /*******************************************************************************
ARM GAS  C:\Users\Albert\AppData\Local\Temp\cccAcjU0.s 			page 8


 193:Generated_Source\PSoC5/Counter_1.c **** * Function Name: Counter_1_Stop
 194:Generated_Source\PSoC5/Counter_1.c **** ********************************************************************************
 195:Generated_Source\PSoC5/Counter_1.c **** * Summary:
 196:Generated_Source\PSoC5/Counter_1.c **** * Halts the counter, but does not change any modes or disable interrupts.
 197:Generated_Source\PSoC5/Counter_1.c **** *
 198:Generated_Source\PSoC5/Counter_1.c **** * Parameters:  
 199:Generated_Source\PSoC5/Counter_1.c **** *  void  
 200:Generated_Source\PSoC5/Counter_1.c **** *
 201:Generated_Source\PSoC5/Counter_1.c **** * Return: 
 202:Generated_Source\PSoC5/Counter_1.c **** *  void
 203:Generated_Source\PSoC5/Counter_1.c **** *
 204:Generated_Source\PSoC5/Counter_1.c **** * Side Effects: If the Enable mode is set to Hardware only then this function
 205:Generated_Source\PSoC5/Counter_1.c **** *               has no effect on the operation of the counter.
 206:Generated_Source\PSoC5/Counter_1.c **** *
 207:Generated_Source\PSoC5/Counter_1.c **** *******************************************************************************/
 208:Generated_Source\PSoC5/Counter_1.c **** void Counter_1_Stop(void) 
 209:Generated_Source\PSoC5/Counter_1.c **** {
 208              		.loc 1 209 0
 209              		.cfi_startproc
 210              		@ args = 0, pretend = 0, frame = 0
 211              		@ frame_needed = 1, uses_anonymous_args = 0
 212              		@ link register save eliminated.
 213 0000 80B4     		push	{r7}
 214              		.cfi_def_cfa_offset 4
 215              		.cfi_offset 7, -4
 216 0002 00AF     		add	r7, sp, #0
 217              		.cfi_def_cfa_register 7
 210:Generated_Source\PSoC5/Counter_1.c ****     /* Disable Counter */
 211:Generated_Source\PSoC5/Counter_1.c ****     #if(!Counter_1_ControlRegRemoved || Counter_1_UsingFixedFunction)
 212:Generated_Source\PSoC5/Counter_1.c ****         Counter_1_CONTROL &= ((uint8)(~Counter_1_CTRL_ENABLE));        
 218              		.loc 1 212 0
 219 0004 054A     		ldr	r2, .L12
 220 0006 054B     		ldr	r3, .L12
 221 0008 1B78     		ldrb	r3, [r3]
 222 000a DBB2     		uxtb	r3, r3
 223 000c 03F07F03 		and	r3, r3, #127
 224 0010 DBB2     		uxtb	r3, r3
 225 0012 1370     		strb	r3, [r2]
 213:Generated_Source\PSoC5/Counter_1.c ****     #endif /* (!Counter_1_ControlRegRemoved || Counter_1_UsingFixedFunction) */
 214:Generated_Source\PSoC5/Counter_1.c ****     
 215:Generated_Source\PSoC5/Counter_1.c ****     /* Globally disable the Fixed Function Block chosen */
 216:Generated_Source\PSoC5/Counter_1.c ****     #if (Counter_1_UsingFixedFunction)
 217:Generated_Source\PSoC5/Counter_1.c ****         Counter_1_GLOBAL_ENABLE &= ((uint8)(~Counter_1_BLOCK_EN_MASK));
 218:Generated_Source\PSoC5/Counter_1.c ****         Counter_1_GLOBAL_STBY_ENABLE &= ((uint8)(~Counter_1_BLOCK_STBY_EN_MASK));
 219:Generated_Source\PSoC5/Counter_1.c ****     #endif /* (Counter_1_UsingFixedFunction) */
 220:Generated_Source\PSoC5/Counter_1.c **** }
 226              		.loc 1 220 0
 227 0014 00BF     		nop
 228 0016 BD46     		mov	sp, r7
 229              		.cfi_def_cfa_register 13
 230              		@ sp needed
 231 0018 80BC     		pop	{r7}
 232              		.cfi_restore 7
 233              		.cfi_def_cfa_offset 0
 234 001a 7047     		bx	lr
 235              	.L13:
 236              		.align	2
ARM GAS  C:\Users\Albert\AppData\Local\Temp\cccAcjU0.s 			page 9


 237              	.L12:
 238 001c 76640040 		.word	1073767542
 239              		.cfi_endproc
 240              	.LFE3:
 241              		.size	Counter_1_Stop, .-Counter_1_Stop
 242              		.section	.text.Counter_1_SetInterruptMode,"ax",%progbits
 243              		.align	2
 244              		.global	Counter_1_SetInterruptMode
 245              		.thumb
 246              		.thumb_func
 247              		.type	Counter_1_SetInterruptMode, %function
 248              	Counter_1_SetInterruptMode:
 249              	.LFB4:
 221:Generated_Source\PSoC5/Counter_1.c **** 
 222:Generated_Source\PSoC5/Counter_1.c **** 
 223:Generated_Source\PSoC5/Counter_1.c **** /*******************************************************************************
 224:Generated_Source\PSoC5/Counter_1.c **** * Function Name: Counter_1_SetInterruptMode
 225:Generated_Source\PSoC5/Counter_1.c **** ********************************************************************************
 226:Generated_Source\PSoC5/Counter_1.c **** * Summary:
 227:Generated_Source\PSoC5/Counter_1.c **** * Configures which interrupt sources are enabled to generate the final interrupt
 228:Generated_Source\PSoC5/Counter_1.c **** *
 229:Generated_Source\PSoC5/Counter_1.c **** * Parameters:  
 230:Generated_Source\PSoC5/Counter_1.c **** *  InterruptsMask: This parameter is an or'd collection of the status bits
 231:Generated_Source\PSoC5/Counter_1.c **** *                   which will be allowed to generate the counters interrupt.   
 232:Generated_Source\PSoC5/Counter_1.c **** *
 233:Generated_Source\PSoC5/Counter_1.c **** * Return: 
 234:Generated_Source\PSoC5/Counter_1.c **** *  void
 235:Generated_Source\PSoC5/Counter_1.c **** *
 236:Generated_Source\PSoC5/Counter_1.c **** *******************************************************************************/
 237:Generated_Source\PSoC5/Counter_1.c **** void Counter_1_SetInterruptMode(uint8 interruptsMask) 
 238:Generated_Source\PSoC5/Counter_1.c **** {
 250              		.loc 1 238 0
 251              		.cfi_startproc
 252              		@ args = 0, pretend = 0, frame = 8
 253              		@ frame_needed = 1, uses_anonymous_args = 0
 254              		@ link register save eliminated.
 255 0000 80B4     		push	{r7}
 256              		.cfi_def_cfa_offset 4
 257              		.cfi_offset 7, -4
 258 0002 83B0     		sub	sp, sp, #12
 259              		.cfi_def_cfa_offset 16
 260 0004 00AF     		add	r7, sp, #0
 261              		.cfi_def_cfa_register 7
 262 0006 0346     		mov	r3, r0
 263 0008 FB71     		strb	r3, [r7, #7]
 239:Generated_Source\PSoC5/Counter_1.c ****     Counter_1_STATUS_MASK = interruptsMask;
 264              		.loc 1 239 0
 265 000a 044A     		ldr	r2, .L15
 266 000c FB79     		ldrb	r3, [r7, #7]
 267 000e 1370     		strb	r3, [r2]
 240:Generated_Source\PSoC5/Counter_1.c **** }
 268              		.loc 1 240 0
 269 0010 00BF     		nop
 270 0012 0C37     		adds	r7, r7, #12
 271              		.cfi_def_cfa_offset 4
 272 0014 BD46     		mov	sp, r7
 273              		.cfi_def_cfa_register 13
ARM GAS  C:\Users\Albert\AppData\Local\Temp\cccAcjU0.s 			page 10


 274              		@ sp needed
 275 0016 80BC     		pop	{r7}
 276              		.cfi_restore 7
 277              		.cfi_def_cfa_offset 0
 278 0018 7047     		bx	lr
 279              	.L16:
 280 001a 00BF     		.align	2
 281              	.L15:
 282 001c 87650040 		.word	1073767815
 283              		.cfi_endproc
 284              	.LFE4:
 285              		.size	Counter_1_SetInterruptMode, .-Counter_1_SetInterruptMode
 286              		.section	.text.Counter_1_ReadStatusRegister,"ax",%progbits
 287              		.align	2
 288              		.global	Counter_1_ReadStatusRegister
 289              		.thumb
 290              		.thumb_func
 291              		.type	Counter_1_ReadStatusRegister, %function
 292              	Counter_1_ReadStatusRegister:
 293              	.LFB5:
 241:Generated_Source\PSoC5/Counter_1.c **** 
 242:Generated_Source\PSoC5/Counter_1.c **** 
 243:Generated_Source\PSoC5/Counter_1.c **** /*******************************************************************************
 244:Generated_Source\PSoC5/Counter_1.c **** * Function Name: Counter_1_ReadStatusRegister
 245:Generated_Source\PSoC5/Counter_1.c **** ********************************************************************************
 246:Generated_Source\PSoC5/Counter_1.c **** * Summary:
 247:Generated_Source\PSoC5/Counter_1.c **** *   Reads the status register and returns it's state. This function should use
 248:Generated_Source\PSoC5/Counter_1.c **** *       defined types for the bit-field information as the bits in this
 249:Generated_Source\PSoC5/Counter_1.c **** *       register may be permuteable.
 250:Generated_Source\PSoC5/Counter_1.c **** *
 251:Generated_Source\PSoC5/Counter_1.c **** * Parameters:  
 252:Generated_Source\PSoC5/Counter_1.c **** *  void
 253:Generated_Source\PSoC5/Counter_1.c **** *
 254:Generated_Source\PSoC5/Counter_1.c **** * Return: 
 255:Generated_Source\PSoC5/Counter_1.c **** *  (uint8) The contents of the status register
 256:Generated_Source\PSoC5/Counter_1.c **** *
 257:Generated_Source\PSoC5/Counter_1.c **** * Side Effects:
 258:Generated_Source\PSoC5/Counter_1.c **** *   Status register bits may be clear on read. 
 259:Generated_Source\PSoC5/Counter_1.c **** *
 260:Generated_Source\PSoC5/Counter_1.c **** *******************************************************************************/
 261:Generated_Source\PSoC5/Counter_1.c **** uint8   Counter_1_ReadStatusRegister(void) 
 262:Generated_Source\PSoC5/Counter_1.c **** {
 294              		.loc 1 262 0
 295              		.cfi_startproc
 296              		@ args = 0, pretend = 0, frame = 0
 297              		@ frame_needed = 1, uses_anonymous_args = 0
 298              		@ link register save eliminated.
 299 0000 80B4     		push	{r7}
 300              		.cfi_def_cfa_offset 4
 301              		.cfi_offset 7, -4
 302 0002 00AF     		add	r7, sp, #0
 303              		.cfi_def_cfa_register 7
 263:Generated_Source\PSoC5/Counter_1.c ****     return Counter_1_STATUS;
 304              		.loc 1 263 0
 305 0004 034B     		ldr	r3, .L19
 306 0006 1B78     		ldrb	r3, [r3]
 307 0008 DBB2     		uxtb	r3, r3
ARM GAS  C:\Users\Albert\AppData\Local\Temp\cccAcjU0.s 			page 11


 264:Generated_Source\PSoC5/Counter_1.c **** }
 308              		.loc 1 264 0
 309 000a 1846     		mov	r0, r3
 310 000c BD46     		mov	sp, r7
 311              		.cfi_def_cfa_register 13
 312              		@ sp needed
 313 000e 80BC     		pop	{r7}
 314              		.cfi_restore 7
 315              		.cfi_def_cfa_offset 0
 316 0010 7047     		bx	lr
 317              	.L20:
 318 0012 00BF     		.align	2
 319              	.L19:
 320 0014 67650040 		.word	1073767783
 321              		.cfi_endproc
 322              	.LFE5:
 323              		.size	Counter_1_ReadStatusRegister, .-Counter_1_ReadStatusRegister
 324              		.section	.text.Counter_1_ReadControlRegister,"ax",%progbits
 325              		.align	2
 326              		.global	Counter_1_ReadControlRegister
 327              		.thumb
 328              		.thumb_func
 329              		.type	Counter_1_ReadControlRegister, %function
 330              	Counter_1_ReadControlRegister:
 331              	.LFB6:
 265:Generated_Source\PSoC5/Counter_1.c **** 
 266:Generated_Source\PSoC5/Counter_1.c **** 
 267:Generated_Source\PSoC5/Counter_1.c **** #if(!Counter_1_ControlRegRemoved)
 268:Generated_Source\PSoC5/Counter_1.c **** /*******************************************************************************
 269:Generated_Source\PSoC5/Counter_1.c **** * Function Name: Counter_1_ReadControlRegister
 270:Generated_Source\PSoC5/Counter_1.c **** ********************************************************************************
 271:Generated_Source\PSoC5/Counter_1.c **** * Summary:
 272:Generated_Source\PSoC5/Counter_1.c **** *   Reads the control register and returns it's state. This function should use
 273:Generated_Source\PSoC5/Counter_1.c **** *       defined types for the bit-field information as the bits in this
 274:Generated_Source\PSoC5/Counter_1.c **** *       register may be permuteable.
 275:Generated_Source\PSoC5/Counter_1.c **** *
 276:Generated_Source\PSoC5/Counter_1.c **** * Parameters:  
 277:Generated_Source\PSoC5/Counter_1.c **** *  void
 278:Generated_Source\PSoC5/Counter_1.c **** *
 279:Generated_Source\PSoC5/Counter_1.c **** * Return: 
 280:Generated_Source\PSoC5/Counter_1.c **** *  (uint8) The contents of the control register
 281:Generated_Source\PSoC5/Counter_1.c **** *
 282:Generated_Source\PSoC5/Counter_1.c **** *******************************************************************************/
 283:Generated_Source\PSoC5/Counter_1.c **** uint8   Counter_1_ReadControlRegister(void) 
 284:Generated_Source\PSoC5/Counter_1.c **** {
 332              		.loc 1 284 0
 333              		.cfi_startproc
 334              		@ args = 0, pretend = 0, frame = 0
 335              		@ frame_needed = 1, uses_anonymous_args = 0
 336              		@ link register save eliminated.
 337 0000 80B4     		push	{r7}
 338              		.cfi_def_cfa_offset 4
 339              		.cfi_offset 7, -4
 340 0002 00AF     		add	r7, sp, #0
 341              		.cfi_def_cfa_register 7
 285:Generated_Source\PSoC5/Counter_1.c ****     return Counter_1_CONTROL;
 342              		.loc 1 285 0
ARM GAS  C:\Users\Albert\AppData\Local\Temp\cccAcjU0.s 			page 12


 343 0004 034B     		ldr	r3, .L23
 344 0006 1B78     		ldrb	r3, [r3]
 345 0008 DBB2     		uxtb	r3, r3
 286:Generated_Source\PSoC5/Counter_1.c **** }
 346              		.loc 1 286 0
 347 000a 1846     		mov	r0, r3
 348 000c BD46     		mov	sp, r7
 349              		.cfi_def_cfa_register 13
 350              		@ sp needed
 351 000e 80BC     		pop	{r7}
 352              		.cfi_restore 7
 353              		.cfi_def_cfa_offset 0
 354 0010 7047     		bx	lr
 355              	.L24:
 356 0012 00BF     		.align	2
 357              	.L23:
 358 0014 76640040 		.word	1073767542
 359              		.cfi_endproc
 360              	.LFE6:
 361              		.size	Counter_1_ReadControlRegister, .-Counter_1_ReadControlRegister
 362              		.section	.text.Counter_1_WriteControlRegister,"ax",%progbits
 363              		.align	2
 364              		.global	Counter_1_WriteControlRegister
 365              		.thumb
 366              		.thumb_func
 367              		.type	Counter_1_WriteControlRegister, %function
 368              	Counter_1_WriteControlRegister:
 369              	.LFB7:
 287:Generated_Source\PSoC5/Counter_1.c **** 
 288:Generated_Source\PSoC5/Counter_1.c **** 
 289:Generated_Source\PSoC5/Counter_1.c **** /*******************************************************************************
 290:Generated_Source\PSoC5/Counter_1.c **** * Function Name: Counter_1_WriteControlRegister
 291:Generated_Source\PSoC5/Counter_1.c **** ********************************************************************************
 292:Generated_Source\PSoC5/Counter_1.c **** * Summary:
 293:Generated_Source\PSoC5/Counter_1.c **** *   Sets the bit-field of the control register.  This function should use
 294:Generated_Source\PSoC5/Counter_1.c **** *       defined types for the bit-field information as the bits in this
 295:Generated_Source\PSoC5/Counter_1.c **** *       register may be permuteable.
 296:Generated_Source\PSoC5/Counter_1.c **** *
 297:Generated_Source\PSoC5/Counter_1.c **** * Parameters:  
 298:Generated_Source\PSoC5/Counter_1.c **** *  void
 299:Generated_Source\PSoC5/Counter_1.c **** *
 300:Generated_Source\PSoC5/Counter_1.c **** * Return: 
 301:Generated_Source\PSoC5/Counter_1.c **** *  (uint8) The contents of the control register
 302:Generated_Source\PSoC5/Counter_1.c **** *
 303:Generated_Source\PSoC5/Counter_1.c **** *******************************************************************************/
 304:Generated_Source\PSoC5/Counter_1.c **** void    Counter_1_WriteControlRegister(uint8 control) 
 305:Generated_Source\PSoC5/Counter_1.c **** {
 370              		.loc 1 305 0
 371              		.cfi_startproc
 372              		@ args = 0, pretend = 0, frame = 8
 373              		@ frame_needed = 1, uses_anonymous_args = 0
 374              		@ link register save eliminated.
 375 0000 80B4     		push	{r7}
 376              		.cfi_def_cfa_offset 4
 377              		.cfi_offset 7, -4
 378 0002 83B0     		sub	sp, sp, #12
 379              		.cfi_def_cfa_offset 16
ARM GAS  C:\Users\Albert\AppData\Local\Temp\cccAcjU0.s 			page 13


 380 0004 00AF     		add	r7, sp, #0
 381              		.cfi_def_cfa_register 7
 382 0006 0346     		mov	r3, r0
 383 0008 FB71     		strb	r3, [r7, #7]
 306:Generated_Source\PSoC5/Counter_1.c ****     Counter_1_CONTROL = control;
 384              		.loc 1 306 0
 385 000a 044A     		ldr	r2, .L26
 386 000c FB79     		ldrb	r3, [r7, #7]
 387 000e 1370     		strb	r3, [r2]
 307:Generated_Source\PSoC5/Counter_1.c **** }
 388              		.loc 1 307 0
 389 0010 00BF     		nop
 390 0012 0C37     		adds	r7, r7, #12
 391              		.cfi_def_cfa_offset 4
 392 0014 BD46     		mov	sp, r7
 393              		.cfi_def_cfa_register 13
 394              		@ sp needed
 395 0016 80BC     		pop	{r7}
 396              		.cfi_restore 7
 397              		.cfi_def_cfa_offset 0
 398 0018 7047     		bx	lr
 399              	.L27:
 400 001a 00BF     		.align	2
 401              	.L26:
 402 001c 76640040 		.word	1073767542
 403              		.cfi_endproc
 404              	.LFE7:
 405              		.size	Counter_1_WriteControlRegister, .-Counter_1_WriteControlRegister
 406              		.section	.text.Counter_1_WriteCounter,"ax",%progbits
 407              		.align	2
 408              		.global	Counter_1_WriteCounter
 409              		.thumb
 410              		.thumb_func
 411              		.type	Counter_1_WriteCounter, %function
 412              	Counter_1_WriteCounter:
 413              	.LFB8:
 308:Generated_Source\PSoC5/Counter_1.c **** 
 309:Generated_Source\PSoC5/Counter_1.c **** #endif  /* (!Counter_1_ControlRegRemoved) */
 310:Generated_Source\PSoC5/Counter_1.c **** 
 311:Generated_Source\PSoC5/Counter_1.c **** 
 312:Generated_Source\PSoC5/Counter_1.c **** #if (!(Counter_1_UsingFixedFunction && (CY_PSOC5A)))
 313:Generated_Source\PSoC5/Counter_1.c **** /*******************************************************************************
 314:Generated_Source\PSoC5/Counter_1.c **** * Function Name: Counter_1_WriteCounter
 315:Generated_Source\PSoC5/Counter_1.c **** ********************************************************************************
 316:Generated_Source\PSoC5/Counter_1.c **** * Summary:
 317:Generated_Source\PSoC5/Counter_1.c **** *   This funtion is used to set the counter to a specific value
 318:Generated_Source\PSoC5/Counter_1.c **** *
 319:Generated_Source\PSoC5/Counter_1.c **** * Parameters:  
 320:Generated_Source\PSoC5/Counter_1.c **** *  counter:  New counter value. 
 321:Generated_Source\PSoC5/Counter_1.c **** *
 322:Generated_Source\PSoC5/Counter_1.c **** * Return: 
 323:Generated_Source\PSoC5/Counter_1.c **** *  void 
 324:Generated_Source\PSoC5/Counter_1.c **** *
 325:Generated_Source\PSoC5/Counter_1.c **** *******************************************************************************/
 326:Generated_Source\PSoC5/Counter_1.c **** void Counter_1_WriteCounter(uint32 counter) \
 327:Generated_Source\PSoC5/Counter_1.c ****                                    
 328:Generated_Source\PSoC5/Counter_1.c **** {
ARM GAS  C:\Users\Albert\AppData\Local\Temp\cccAcjU0.s 			page 14


 414              		.loc 1 328 0
 415              		.cfi_startproc
 416              		@ args = 0, pretend = 0, frame = 8
 417              		@ frame_needed = 1, uses_anonymous_args = 0
 418              		@ link register save eliminated.
 419 0000 80B4     		push	{r7}
 420              		.cfi_def_cfa_offset 4
 421              		.cfi_offset 7, -4
 422 0002 83B0     		sub	sp, sp, #12
 423              		.cfi_def_cfa_offset 16
 424 0004 00AF     		add	r7, sp, #0
 425              		.cfi_def_cfa_register 7
 426 0006 7860     		str	r0, [r7, #4]
 329:Generated_Source\PSoC5/Counter_1.c ****     #if(Counter_1_UsingFixedFunction)
 330:Generated_Source\PSoC5/Counter_1.c ****         /* assert if block is already enabled */
 331:Generated_Source\PSoC5/Counter_1.c ****         CYASSERT (0u == (Counter_1_GLOBAL_ENABLE & Counter_1_BLOCK_EN_MASK));
 332:Generated_Source\PSoC5/Counter_1.c ****         /* If block is disabled, enable it and then write the counter */
 333:Generated_Source\PSoC5/Counter_1.c ****         Counter_1_GLOBAL_ENABLE |= Counter_1_BLOCK_EN_MASK;
 334:Generated_Source\PSoC5/Counter_1.c ****         CY_SET_REG16(Counter_1_COUNTER_LSB_PTR, (uint16)counter);
 335:Generated_Source\PSoC5/Counter_1.c ****         Counter_1_GLOBAL_ENABLE &= ((uint8)(~Counter_1_BLOCK_EN_MASK));
 336:Generated_Source\PSoC5/Counter_1.c ****     #else
 337:Generated_Source\PSoC5/Counter_1.c ****         CY_SET_REG32(Counter_1_COUNTER_LSB_PTR, counter);
 427              		.loc 1 337 0
 428 0008 034A     		ldr	r2, .L29
 429 000a 7B68     		ldr	r3, [r7, #4]
 430 000c 1360     		str	r3, [r2]
 338:Generated_Source\PSoC5/Counter_1.c ****     #endif /* (Counter_1_UsingFixedFunction) */
 339:Generated_Source\PSoC5/Counter_1.c **** }
 431              		.loc 1 339 0
 432 000e 00BF     		nop
 433 0010 0C37     		adds	r7, r7, #12
 434              		.cfi_def_cfa_offset 4
 435 0012 BD46     		mov	sp, r7
 436              		.cfi_def_cfa_register 13
 437              		@ sp needed
 438 0014 80BC     		pop	{r7}
 439              		.cfi_restore 7
 440              		.cfi_def_cfa_offset 0
 441 0016 7047     		bx	lr
 442              	.L30:
 443              		.align	2
 444              	.L29:
 445 0018 04650040 		.word	1073767684
 446              		.cfi_endproc
 447              	.LFE8:
 448              		.size	Counter_1_WriteCounter, .-Counter_1_WriteCounter
 449              		.section	.text.Counter_1_ReadCounter,"ax",%progbits
 450              		.align	2
 451              		.global	Counter_1_ReadCounter
 452              		.thumb
 453              		.thumb_func
 454              		.type	Counter_1_ReadCounter, %function
 455              	Counter_1_ReadCounter:
 456              	.LFB9:
 340:Generated_Source\PSoC5/Counter_1.c **** #endif /* (!(Counter_1_UsingFixedFunction && (CY_PSOC5A))) */
 341:Generated_Source\PSoC5/Counter_1.c **** 
 342:Generated_Source\PSoC5/Counter_1.c **** 
ARM GAS  C:\Users\Albert\AppData\Local\Temp\cccAcjU0.s 			page 15


 343:Generated_Source\PSoC5/Counter_1.c **** /*******************************************************************************
 344:Generated_Source\PSoC5/Counter_1.c **** * Function Name: Counter_1_ReadCounter
 345:Generated_Source\PSoC5/Counter_1.c **** ********************************************************************************
 346:Generated_Source\PSoC5/Counter_1.c **** * Summary:
 347:Generated_Source\PSoC5/Counter_1.c **** * Returns the current value of the counter.  It doesn't matter
 348:Generated_Source\PSoC5/Counter_1.c **** * if the counter is enabled or running.
 349:Generated_Source\PSoC5/Counter_1.c **** *
 350:Generated_Source\PSoC5/Counter_1.c **** * Parameters:  
 351:Generated_Source\PSoC5/Counter_1.c **** *  void:  
 352:Generated_Source\PSoC5/Counter_1.c **** *
 353:Generated_Source\PSoC5/Counter_1.c **** * Return: 
 354:Generated_Source\PSoC5/Counter_1.c **** *  (uint32) The present value of the counter.
 355:Generated_Source\PSoC5/Counter_1.c **** *
 356:Generated_Source\PSoC5/Counter_1.c **** *******************************************************************************/
 357:Generated_Source\PSoC5/Counter_1.c **** uint32 Counter_1_ReadCounter(void) 
 358:Generated_Source\PSoC5/Counter_1.c **** {
 457              		.loc 1 358 0
 458              		.cfi_startproc
 459              		@ args = 0, pretend = 0, frame = 0
 460              		@ frame_needed = 1, uses_anonymous_args = 0
 461              		@ link register save eliminated.
 462 0000 80B4     		push	{r7}
 463              		.cfi_def_cfa_offset 4
 464              		.cfi_offset 7, -4
 465 0002 00AF     		add	r7, sp, #0
 466              		.cfi_def_cfa_register 7
 359:Generated_Source\PSoC5/Counter_1.c ****     /* Force capture by reading Accumulator */
 360:Generated_Source\PSoC5/Counter_1.c ****     /* Must first do a software capture to be able to read the counter */
 361:Generated_Source\PSoC5/Counter_1.c ****     /* It is up to the user code to make sure there isn't already captured data in the FIFO */
 362:Generated_Source\PSoC5/Counter_1.c ****     #if(Counter_1_UsingFixedFunction)
 363:Generated_Source\PSoC5/Counter_1.c **** 		(void)CY_GET_REG16(Counter_1_COUNTER_LSB_PTR);
 364:Generated_Source\PSoC5/Counter_1.c **** 	#else
 365:Generated_Source\PSoC5/Counter_1.c **** 		(void)CY_GET_REG8(Counter_1_COUNTER_LSB_PTR_8BIT);
 467              		.loc 1 365 0
 468 0004 034B     		ldr	r3, .L33
 469 0006 1B78     		ldrb	r3, [r3]
 366:Generated_Source\PSoC5/Counter_1.c **** 	#endif/* (Counter_1_UsingFixedFunction) */
 367:Generated_Source\PSoC5/Counter_1.c ****     
 368:Generated_Source\PSoC5/Counter_1.c ****     /* Read the data from the FIFO (or capture register for Fixed Function)*/
 369:Generated_Source\PSoC5/Counter_1.c ****     #if(Counter_1_UsingFixedFunction)
 370:Generated_Source\PSoC5/Counter_1.c ****         return ((uint32)CY_GET_REG16(Counter_1_STATICCOUNT_LSB_PTR));
 371:Generated_Source\PSoC5/Counter_1.c ****     #else
 372:Generated_Source\PSoC5/Counter_1.c ****         return (CY_GET_REG32(Counter_1_STATICCOUNT_LSB_PTR));
 470              		.loc 1 372 0
 471 0008 034B     		ldr	r3, .L33+4
 472 000a 1B68     		ldr	r3, [r3]
 373:Generated_Source\PSoC5/Counter_1.c ****     #endif /* (Counter_1_UsingFixedFunction) */
 374:Generated_Source\PSoC5/Counter_1.c **** }
 473              		.loc 1 374 0
 474 000c 1846     		mov	r0, r3
 475 000e BD46     		mov	sp, r7
 476              		.cfi_def_cfa_register 13
 477              		@ sp needed
 478 0010 80BC     		pop	{r7}
 479              		.cfi_restore 7
 480              		.cfi_def_cfa_offset 0
 481 0012 7047     		bx	lr
ARM GAS  C:\Users\Albert\AppData\Local\Temp\cccAcjU0.s 			page 16


 482              	.L34:
 483              		.align	2
 484              	.L33:
 485 0014 04650040 		.word	1073767684
 486 0018 44650040 		.word	1073767748
 487              		.cfi_endproc
 488              	.LFE9:
 489              		.size	Counter_1_ReadCounter, .-Counter_1_ReadCounter
 490              		.section	.text.Counter_1_ReadCapture,"ax",%progbits
 491              		.align	2
 492              		.global	Counter_1_ReadCapture
 493              		.thumb
 494              		.thumb_func
 495              		.type	Counter_1_ReadCapture, %function
 496              	Counter_1_ReadCapture:
 497              	.LFB10:
 375:Generated_Source\PSoC5/Counter_1.c **** 
 376:Generated_Source\PSoC5/Counter_1.c **** 
 377:Generated_Source\PSoC5/Counter_1.c **** /*******************************************************************************
 378:Generated_Source\PSoC5/Counter_1.c **** * Function Name: Counter_1_ReadCapture
 379:Generated_Source\PSoC5/Counter_1.c **** ********************************************************************************
 380:Generated_Source\PSoC5/Counter_1.c **** * Summary:
 381:Generated_Source\PSoC5/Counter_1.c **** *   This function returns the last value captured.
 382:Generated_Source\PSoC5/Counter_1.c **** *
 383:Generated_Source\PSoC5/Counter_1.c **** * Parameters:  
 384:Generated_Source\PSoC5/Counter_1.c **** *  void
 385:Generated_Source\PSoC5/Counter_1.c **** *
 386:Generated_Source\PSoC5/Counter_1.c **** * Return: 
 387:Generated_Source\PSoC5/Counter_1.c **** *  (uint32) Present Capture value.
 388:Generated_Source\PSoC5/Counter_1.c **** *
 389:Generated_Source\PSoC5/Counter_1.c **** *******************************************************************************/
 390:Generated_Source\PSoC5/Counter_1.c **** uint32 Counter_1_ReadCapture(void) 
 391:Generated_Source\PSoC5/Counter_1.c **** {
 498              		.loc 1 391 0
 499              		.cfi_startproc
 500              		@ args = 0, pretend = 0, frame = 0
 501              		@ frame_needed = 1, uses_anonymous_args = 0
 502              		@ link register save eliminated.
 503 0000 80B4     		push	{r7}
 504              		.cfi_def_cfa_offset 4
 505              		.cfi_offset 7, -4
 506 0002 00AF     		add	r7, sp, #0
 507              		.cfi_def_cfa_register 7
 392:Generated_Source\PSoC5/Counter_1.c ****     #if(Counter_1_UsingFixedFunction)
 393:Generated_Source\PSoC5/Counter_1.c ****         return ((uint32)CY_GET_REG16(Counter_1_STATICCOUNT_LSB_PTR));
 394:Generated_Source\PSoC5/Counter_1.c ****     #else
 395:Generated_Source\PSoC5/Counter_1.c ****         return (CY_GET_REG32(Counter_1_STATICCOUNT_LSB_PTR));
 508              		.loc 1 395 0
 509 0004 024B     		ldr	r3, .L37
 510 0006 1B68     		ldr	r3, [r3]
 396:Generated_Source\PSoC5/Counter_1.c ****     #endif /* (Counter_1_UsingFixedFunction) */
 397:Generated_Source\PSoC5/Counter_1.c **** }
 511              		.loc 1 397 0
 512 0008 1846     		mov	r0, r3
 513 000a BD46     		mov	sp, r7
 514              		.cfi_def_cfa_register 13
 515              		@ sp needed
ARM GAS  C:\Users\Albert\AppData\Local\Temp\cccAcjU0.s 			page 17


 516 000c 80BC     		pop	{r7}
 517              		.cfi_restore 7
 518              		.cfi_def_cfa_offset 0
 519 000e 7047     		bx	lr
 520              	.L38:
 521              		.align	2
 522              	.L37:
 523 0010 44650040 		.word	1073767748
 524              		.cfi_endproc
 525              	.LFE10:
 526              		.size	Counter_1_ReadCapture, .-Counter_1_ReadCapture
 527              		.section	.text.Counter_1_WritePeriod,"ax",%progbits
 528              		.align	2
 529              		.global	Counter_1_WritePeriod
 530              		.thumb
 531              		.thumb_func
 532              		.type	Counter_1_WritePeriod, %function
 533              	Counter_1_WritePeriod:
 534              	.LFB11:
 398:Generated_Source\PSoC5/Counter_1.c **** 
 399:Generated_Source\PSoC5/Counter_1.c **** 
 400:Generated_Source\PSoC5/Counter_1.c **** /*******************************************************************************
 401:Generated_Source\PSoC5/Counter_1.c **** * Function Name: Counter_1_WritePeriod
 402:Generated_Source\PSoC5/Counter_1.c **** ********************************************************************************
 403:Generated_Source\PSoC5/Counter_1.c **** * Summary:
 404:Generated_Source\PSoC5/Counter_1.c **** * Changes the period of the counter.  The new period 
 405:Generated_Source\PSoC5/Counter_1.c **** * will be loaded the next time terminal count is detected.
 406:Generated_Source\PSoC5/Counter_1.c **** *
 407:Generated_Source\PSoC5/Counter_1.c **** * Parameters:  
 408:Generated_Source\PSoC5/Counter_1.c **** *  period: (uint32) A value of 0 will result in
 409:Generated_Source\PSoC5/Counter_1.c **** *         the counter remaining at zero.  
 410:Generated_Source\PSoC5/Counter_1.c **** *
 411:Generated_Source\PSoC5/Counter_1.c **** * Return: 
 412:Generated_Source\PSoC5/Counter_1.c **** *  void
 413:Generated_Source\PSoC5/Counter_1.c **** *
 414:Generated_Source\PSoC5/Counter_1.c **** *******************************************************************************/
 415:Generated_Source\PSoC5/Counter_1.c **** void Counter_1_WritePeriod(uint32 period) 
 416:Generated_Source\PSoC5/Counter_1.c **** {
 535              		.loc 1 416 0
 536              		.cfi_startproc
 537              		@ args = 0, pretend = 0, frame = 8
 538              		@ frame_needed = 1, uses_anonymous_args = 0
 539              		@ link register save eliminated.
 540 0000 80B4     		push	{r7}
 541              		.cfi_def_cfa_offset 4
 542              		.cfi_offset 7, -4
 543 0002 83B0     		sub	sp, sp, #12
 544              		.cfi_def_cfa_offset 16
 545 0004 00AF     		add	r7, sp, #0
 546              		.cfi_def_cfa_register 7
 547 0006 7860     		str	r0, [r7, #4]
 417:Generated_Source\PSoC5/Counter_1.c ****     #if(Counter_1_UsingFixedFunction)
 418:Generated_Source\PSoC5/Counter_1.c ****         CY_SET_REG16(Counter_1_PERIOD_LSB_PTR,(uint16)period);
 419:Generated_Source\PSoC5/Counter_1.c ****     #else
 420:Generated_Source\PSoC5/Counter_1.c ****         CY_SET_REG32(Counter_1_PERIOD_LSB_PTR, period);
 548              		.loc 1 420 0
 549 0008 034A     		ldr	r2, .L40
ARM GAS  C:\Users\Albert\AppData\Local\Temp\cccAcjU0.s 			page 18


 550 000a 7B68     		ldr	r3, [r7, #4]
 551 000c 1360     		str	r3, [r2]
 421:Generated_Source\PSoC5/Counter_1.c ****     #endif /* (Counter_1_UsingFixedFunction) */
 422:Generated_Source\PSoC5/Counter_1.c **** }
 552              		.loc 1 422 0
 553 000e 00BF     		nop
 554 0010 0C37     		adds	r7, r7, #12
 555              		.cfi_def_cfa_offset 4
 556 0012 BD46     		mov	sp, r7
 557              		.cfi_def_cfa_register 13
 558              		@ sp needed
 559 0014 80BC     		pop	{r7}
 560              		.cfi_restore 7
 561              		.cfi_def_cfa_offset 0
 562 0016 7047     		bx	lr
 563              	.L41:
 564              		.align	2
 565              	.L40:
 566 0018 24650040 		.word	1073767716
 567              		.cfi_endproc
 568              	.LFE11:
 569              		.size	Counter_1_WritePeriod, .-Counter_1_WritePeriod
 570              		.section	.text.Counter_1_ReadPeriod,"ax",%progbits
 571              		.align	2
 572              		.global	Counter_1_ReadPeriod
 573              		.thumb
 574              		.thumb_func
 575              		.type	Counter_1_ReadPeriod, %function
 576              	Counter_1_ReadPeriod:
 577              	.LFB12:
 423:Generated_Source\PSoC5/Counter_1.c **** 
 424:Generated_Source\PSoC5/Counter_1.c **** 
 425:Generated_Source\PSoC5/Counter_1.c **** /*******************************************************************************
 426:Generated_Source\PSoC5/Counter_1.c **** * Function Name: Counter_1_ReadPeriod
 427:Generated_Source\PSoC5/Counter_1.c **** ********************************************************************************
 428:Generated_Source\PSoC5/Counter_1.c **** * Summary:
 429:Generated_Source\PSoC5/Counter_1.c **** * Reads the current period value without affecting counter operation.
 430:Generated_Source\PSoC5/Counter_1.c **** *
 431:Generated_Source\PSoC5/Counter_1.c **** * Parameters:  
 432:Generated_Source\PSoC5/Counter_1.c **** *  void:  
 433:Generated_Source\PSoC5/Counter_1.c **** *
 434:Generated_Source\PSoC5/Counter_1.c **** * Return: 
 435:Generated_Source\PSoC5/Counter_1.c **** *  (uint32) Present period value.
 436:Generated_Source\PSoC5/Counter_1.c **** *
 437:Generated_Source\PSoC5/Counter_1.c **** *******************************************************************************/
 438:Generated_Source\PSoC5/Counter_1.c **** uint32 Counter_1_ReadPeriod(void) 
 439:Generated_Source\PSoC5/Counter_1.c **** {
 578              		.loc 1 439 0
 579              		.cfi_startproc
 580              		@ args = 0, pretend = 0, frame = 0
 581              		@ frame_needed = 1, uses_anonymous_args = 0
 582              		@ link register save eliminated.
 583 0000 80B4     		push	{r7}
 584              		.cfi_def_cfa_offset 4
 585              		.cfi_offset 7, -4
 586 0002 00AF     		add	r7, sp, #0
 587              		.cfi_def_cfa_register 7
ARM GAS  C:\Users\Albert\AppData\Local\Temp\cccAcjU0.s 			page 19


 440:Generated_Source\PSoC5/Counter_1.c ****     #if(Counter_1_UsingFixedFunction)
 441:Generated_Source\PSoC5/Counter_1.c ****         return ((uint32)CY_GET_REG16(Counter_1_PERIOD_LSB_PTR));
 442:Generated_Source\PSoC5/Counter_1.c ****     #else
 443:Generated_Source\PSoC5/Counter_1.c ****         return (CY_GET_REG32(Counter_1_PERIOD_LSB_PTR));
 588              		.loc 1 443 0
 589 0004 024B     		ldr	r3, .L44
 590 0006 1B68     		ldr	r3, [r3]
 444:Generated_Source\PSoC5/Counter_1.c ****     #endif /* (Counter_1_UsingFixedFunction) */
 445:Generated_Source\PSoC5/Counter_1.c **** }
 591              		.loc 1 445 0
 592 0008 1846     		mov	r0, r3
 593 000a BD46     		mov	sp, r7
 594              		.cfi_def_cfa_register 13
 595              		@ sp needed
 596 000c 80BC     		pop	{r7}
 597              		.cfi_restore 7
 598              		.cfi_def_cfa_offset 0
 599 000e 7047     		bx	lr
 600              	.L45:
 601              		.align	2
 602              	.L44:
 603 0010 24650040 		.word	1073767716
 604              		.cfi_endproc
 605              	.LFE12:
 606              		.size	Counter_1_ReadPeriod, .-Counter_1_ReadPeriod
 607              		.section	.text.Counter_1_WriteCompare,"ax",%progbits
 608              		.align	2
 609              		.global	Counter_1_WriteCompare
 610              		.thumb
 611              		.thumb_func
 612              		.type	Counter_1_WriteCompare, %function
 613              	Counter_1_WriteCompare:
 614              	.LFB13:
 446:Generated_Source\PSoC5/Counter_1.c **** 
 447:Generated_Source\PSoC5/Counter_1.c **** 
 448:Generated_Source\PSoC5/Counter_1.c **** #if (!Counter_1_UsingFixedFunction)
 449:Generated_Source\PSoC5/Counter_1.c **** /*******************************************************************************
 450:Generated_Source\PSoC5/Counter_1.c **** * Function Name: Counter_1_WriteCompare
 451:Generated_Source\PSoC5/Counter_1.c **** ********************************************************************************
 452:Generated_Source\PSoC5/Counter_1.c **** * Summary:
 453:Generated_Source\PSoC5/Counter_1.c **** * Changes the compare value.  The compare output will 
 454:Generated_Source\PSoC5/Counter_1.c **** * reflect the new value on the next UDB clock.  The compare output will be 
 455:Generated_Source\PSoC5/Counter_1.c **** * driven high when the present counter value compares true based on the 
 456:Generated_Source\PSoC5/Counter_1.c **** * configured compare mode setting. 
 457:Generated_Source\PSoC5/Counter_1.c **** *
 458:Generated_Source\PSoC5/Counter_1.c **** * Parameters:  
 459:Generated_Source\PSoC5/Counter_1.c **** *  Compare:  New compare value. 
 460:Generated_Source\PSoC5/Counter_1.c **** *
 461:Generated_Source\PSoC5/Counter_1.c **** * Return: 
 462:Generated_Source\PSoC5/Counter_1.c **** *  void
 463:Generated_Source\PSoC5/Counter_1.c **** *
 464:Generated_Source\PSoC5/Counter_1.c **** *******************************************************************************/
 465:Generated_Source\PSoC5/Counter_1.c **** void Counter_1_WriteCompare(uint32 compare) \
 466:Generated_Source\PSoC5/Counter_1.c ****                                    
 467:Generated_Source\PSoC5/Counter_1.c **** {
 615              		.loc 1 467 0
 616              		.cfi_startproc
ARM GAS  C:\Users\Albert\AppData\Local\Temp\cccAcjU0.s 			page 20


 617              		@ args = 0, pretend = 0, frame = 8
 618              		@ frame_needed = 1, uses_anonymous_args = 0
 619              		@ link register save eliminated.
 620 0000 80B4     		push	{r7}
 621              		.cfi_def_cfa_offset 4
 622              		.cfi_offset 7, -4
 623 0002 83B0     		sub	sp, sp, #12
 624              		.cfi_def_cfa_offset 16
 625 0004 00AF     		add	r7, sp, #0
 626              		.cfi_def_cfa_register 7
 627 0006 7860     		str	r0, [r7, #4]
 468:Generated_Source\PSoC5/Counter_1.c ****     #if(Counter_1_UsingFixedFunction)
 469:Generated_Source\PSoC5/Counter_1.c ****         CY_SET_REG16(Counter_1_COMPARE_LSB_PTR, (uint16)compare);
 470:Generated_Source\PSoC5/Counter_1.c ****     #else
 471:Generated_Source\PSoC5/Counter_1.c ****         CY_SET_REG32(Counter_1_COMPARE_LSB_PTR, compare);
 628              		.loc 1 471 0
 629 0008 034A     		ldr	r2, .L47
 630 000a 7B68     		ldr	r3, [r7, #4]
 631 000c 1360     		str	r3, [r2]
 472:Generated_Source\PSoC5/Counter_1.c ****     #endif /* (Counter_1_UsingFixedFunction) */
 473:Generated_Source\PSoC5/Counter_1.c **** }
 632              		.loc 1 473 0
 633 000e 00BF     		nop
 634 0010 0C37     		adds	r7, r7, #12
 635              		.cfi_def_cfa_offset 4
 636 0012 BD46     		mov	sp, r7
 637              		.cfi_def_cfa_register 13
 638              		@ sp needed
 639 0014 80BC     		pop	{r7}
 640              		.cfi_restore 7
 641              		.cfi_def_cfa_offset 0
 642 0016 7047     		bx	lr
 643              	.L48:
 644              		.align	2
 645              	.L47:
 646 0018 34650040 		.word	1073767732
 647              		.cfi_endproc
 648              	.LFE13:
 649              		.size	Counter_1_WriteCompare, .-Counter_1_WriteCompare
 650              		.section	.text.Counter_1_ReadCompare,"ax",%progbits
 651              		.align	2
 652              		.global	Counter_1_ReadCompare
 653              		.thumb
 654              		.thumb_func
 655              		.type	Counter_1_ReadCompare, %function
 656              	Counter_1_ReadCompare:
 657              	.LFB14:
 474:Generated_Source\PSoC5/Counter_1.c **** 
 475:Generated_Source\PSoC5/Counter_1.c **** 
 476:Generated_Source\PSoC5/Counter_1.c **** /*******************************************************************************
 477:Generated_Source\PSoC5/Counter_1.c **** * Function Name: Counter_1_ReadCompare
 478:Generated_Source\PSoC5/Counter_1.c **** ********************************************************************************
 479:Generated_Source\PSoC5/Counter_1.c **** * Summary:
 480:Generated_Source\PSoC5/Counter_1.c **** * Returns the compare value.
 481:Generated_Source\PSoC5/Counter_1.c **** *
 482:Generated_Source\PSoC5/Counter_1.c **** * Parameters:  
 483:Generated_Source\PSoC5/Counter_1.c **** *  void:
ARM GAS  C:\Users\Albert\AppData\Local\Temp\cccAcjU0.s 			page 21


 484:Generated_Source\PSoC5/Counter_1.c **** *
 485:Generated_Source\PSoC5/Counter_1.c **** * Return: 
 486:Generated_Source\PSoC5/Counter_1.c **** *  (uint32) Present compare value.
 487:Generated_Source\PSoC5/Counter_1.c **** *
 488:Generated_Source\PSoC5/Counter_1.c **** *******************************************************************************/
 489:Generated_Source\PSoC5/Counter_1.c **** uint32 Counter_1_ReadCompare(void) 
 490:Generated_Source\PSoC5/Counter_1.c **** {
 658              		.loc 1 490 0
 659              		.cfi_startproc
 660              		@ args = 0, pretend = 0, frame = 0
 661              		@ frame_needed = 1, uses_anonymous_args = 0
 662              		@ link register save eliminated.
 663 0000 80B4     		push	{r7}
 664              		.cfi_def_cfa_offset 4
 665              		.cfi_offset 7, -4
 666 0002 00AF     		add	r7, sp, #0
 667              		.cfi_def_cfa_register 7
 491:Generated_Source\PSoC5/Counter_1.c ****     return (CY_GET_REG32(Counter_1_COMPARE_LSB_PTR));
 668              		.loc 1 491 0
 669 0004 024B     		ldr	r3, .L51
 670 0006 1B68     		ldr	r3, [r3]
 492:Generated_Source\PSoC5/Counter_1.c **** }
 671              		.loc 1 492 0
 672 0008 1846     		mov	r0, r3
 673 000a BD46     		mov	sp, r7
 674              		.cfi_def_cfa_register 13
 675              		@ sp needed
 676 000c 80BC     		pop	{r7}
 677              		.cfi_restore 7
 678              		.cfi_def_cfa_offset 0
 679 000e 7047     		bx	lr
 680              	.L52:
 681              		.align	2
 682              	.L51:
 683 0010 34650040 		.word	1073767732
 684              		.cfi_endproc
 685              	.LFE14:
 686              		.size	Counter_1_ReadCompare, .-Counter_1_ReadCompare
 687              		.section	.text.Counter_1_ClearFIFO,"ax",%progbits
 688              		.align	2
 689              		.global	Counter_1_ClearFIFO
 690              		.thumb
 691              		.thumb_func
 692              		.type	Counter_1_ClearFIFO, %function
 693              	Counter_1_ClearFIFO:
 694              	.LFB15:
 493:Generated_Source\PSoC5/Counter_1.c **** 
 494:Generated_Source\PSoC5/Counter_1.c **** 
 495:Generated_Source\PSoC5/Counter_1.c **** #if (Counter_1_COMPARE_MODE_SOFTWARE)
 496:Generated_Source\PSoC5/Counter_1.c **** /*******************************************************************************
 497:Generated_Source\PSoC5/Counter_1.c **** * Function Name: Counter_1_SetCompareMode
 498:Generated_Source\PSoC5/Counter_1.c **** ********************************************************************************
 499:Generated_Source\PSoC5/Counter_1.c **** * Summary:
 500:Generated_Source\PSoC5/Counter_1.c **** *  Sets the software controlled Compare Mode.
 501:Generated_Source\PSoC5/Counter_1.c **** *
 502:Generated_Source\PSoC5/Counter_1.c **** * Parameters:
 503:Generated_Source\PSoC5/Counter_1.c **** *  compareMode:  Compare Mode Enumerated Type.
ARM GAS  C:\Users\Albert\AppData\Local\Temp\cccAcjU0.s 			page 22


 504:Generated_Source\PSoC5/Counter_1.c **** *
 505:Generated_Source\PSoC5/Counter_1.c **** * Return:
 506:Generated_Source\PSoC5/Counter_1.c **** *  void
 507:Generated_Source\PSoC5/Counter_1.c **** *
 508:Generated_Source\PSoC5/Counter_1.c **** *******************************************************************************/
 509:Generated_Source\PSoC5/Counter_1.c **** void Counter_1_SetCompareMode(uint8 compareMode) 
 510:Generated_Source\PSoC5/Counter_1.c **** {
 511:Generated_Source\PSoC5/Counter_1.c ****     /* Clear the compare mode bits in the control register */
 512:Generated_Source\PSoC5/Counter_1.c ****     Counter_1_CONTROL &= ((uint8)(~Counter_1_CTRL_CMPMODE_MASK));
 513:Generated_Source\PSoC5/Counter_1.c ****     
 514:Generated_Source\PSoC5/Counter_1.c ****     /* Write the new setting */
 515:Generated_Source\PSoC5/Counter_1.c ****     Counter_1_CONTROL |= compareMode;
 516:Generated_Source\PSoC5/Counter_1.c **** }
 517:Generated_Source\PSoC5/Counter_1.c **** #endif  /* (Counter_1_COMPARE_MODE_SOFTWARE) */
 518:Generated_Source\PSoC5/Counter_1.c **** 
 519:Generated_Source\PSoC5/Counter_1.c **** 
 520:Generated_Source\PSoC5/Counter_1.c **** #if (Counter_1_CAPTURE_MODE_SOFTWARE)
 521:Generated_Source\PSoC5/Counter_1.c **** /*******************************************************************************
 522:Generated_Source\PSoC5/Counter_1.c **** * Function Name: Counter_1_SetCaptureMode
 523:Generated_Source\PSoC5/Counter_1.c **** ********************************************************************************
 524:Generated_Source\PSoC5/Counter_1.c **** * Summary:
 525:Generated_Source\PSoC5/Counter_1.c **** *  Sets the software controlled Capture Mode.
 526:Generated_Source\PSoC5/Counter_1.c **** *
 527:Generated_Source\PSoC5/Counter_1.c **** * Parameters:
 528:Generated_Source\PSoC5/Counter_1.c **** *  captureMode:  Capture Mode Enumerated Type.
 529:Generated_Source\PSoC5/Counter_1.c **** *
 530:Generated_Source\PSoC5/Counter_1.c **** * Return:
 531:Generated_Source\PSoC5/Counter_1.c **** *  void
 532:Generated_Source\PSoC5/Counter_1.c **** *
 533:Generated_Source\PSoC5/Counter_1.c **** *******************************************************************************/
 534:Generated_Source\PSoC5/Counter_1.c **** void Counter_1_SetCaptureMode(uint8 captureMode) 
 535:Generated_Source\PSoC5/Counter_1.c **** {
 536:Generated_Source\PSoC5/Counter_1.c ****     /* Clear the capture mode bits in the control register */
 537:Generated_Source\PSoC5/Counter_1.c ****     Counter_1_CONTROL &= ((uint8)(~Counter_1_CTRL_CAPMODE_MASK));
 538:Generated_Source\PSoC5/Counter_1.c ****     
 539:Generated_Source\PSoC5/Counter_1.c ****     /* Write the new setting */
 540:Generated_Source\PSoC5/Counter_1.c ****     Counter_1_CONTROL |= ((uint8)((uint8)captureMode << Counter_1_CTRL_CAPMODE0_SHIFT));
 541:Generated_Source\PSoC5/Counter_1.c **** }
 542:Generated_Source\PSoC5/Counter_1.c **** #endif  /* (Counter_1_CAPTURE_MODE_SOFTWARE) */
 543:Generated_Source\PSoC5/Counter_1.c **** 
 544:Generated_Source\PSoC5/Counter_1.c **** 
 545:Generated_Source\PSoC5/Counter_1.c **** /*******************************************************************************
 546:Generated_Source\PSoC5/Counter_1.c **** * Function Name: Counter_1_ClearFIFO
 547:Generated_Source\PSoC5/Counter_1.c **** ********************************************************************************
 548:Generated_Source\PSoC5/Counter_1.c **** * Summary:
 549:Generated_Source\PSoC5/Counter_1.c **** *   This function clears all capture data from the capture FIFO
 550:Generated_Source\PSoC5/Counter_1.c **** *
 551:Generated_Source\PSoC5/Counter_1.c **** * Parameters:  
 552:Generated_Source\PSoC5/Counter_1.c **** *  void:
 553:Generated_Source\PSoC5/Counter_1.c **** *
 554:Generated_Source\PSoC5/Counter_1.c **** * Return: 
 555:Generated_Source\PSoC5/Counter_1.c **** *  None
 556:Generated_Source\PSoC5/Counter_1.c **** *
 557:Generated_Source\PSoC5/Counter_1.c **** *******************************************************************************/
 558:Generated_Source\PSoC5/Counter_1.c **** void Counter_1_ClearFIFO(void) 
 559:Generated_Source\PSoC5/Counter_1.c **** {
 695              		.loc 1 559 0
ARM GAS  C:\Users\Albert\AppData\Local\Temp\cccAcjU0.s 			page 23


 696              		.cfi_startproc
 697              		@ args = 0, pretend = 0, frame = 0
 698              		@ frame_needed = 1, uses_anonymous_args = 0
 699 0000 80B5     		push	{r7, lr}
 700              		.cfi_def_cfa_offset 8
 701              		.cfi_offset 7, -8
 702              		.cfi_offset 14, -4
 703 0002 00AF     		add	r7, sp, #0
 704              		.cfi_def_cfa_register 7
 560:Generated_Source\PSoC5/Counter_1.c **** 
 561:Generated_Source\PSoC5/Counter_1.c ****     while(0u != (Counter_1_ReadStatusRegister() & Counter_1_STATUS_FIFONEMP))
 705              		.loc 1 561 0
 706 0004 01E0     		b	.L54
 707              	.L55:
 562:Generated_Source\PSoC5/Counter_1.c ****     {
 563:Generated_Source\PSoC5/Counter_1.c ****         (void)Counter_1_ReadCapture();
 708              		.loc 1 563 0
 709 0006 FFF7FEFF 		bl	Counter_1_ReadCapture
 710              	.L54:
 561:Generated_Source\PSoC5/Counter_1.c ****     {
 711              		.loc 1 561 0
 712 000a FFF7FEFF 		bl	Counter_1_ReadStatusRegister
 713 000e 0346     		mov	r3, r0
 714 0010 03F04003 		and	r3, r3, #64
 715 0014 002B     		cmp	r3, #0
 716 0016 F6D1     		bne	.L55
 564:Generated_Source\PSoC5/Counter_1.c ****     }
 565:Generated_Source\PSoC5/Counter_1.c **** 
 566:Generated_Source\PSoC5/Counter_1.c **** }
 717              		.loc 1 566 0
 718 0018 00BF     		nop
 719 001a 80BD     		pop	{r7, pc}
 720              		.cfi_endproc
 721              	.LFE15:
 722              		.size	Counter_1_ClearFIFO, .-Counter_1_ClearFIFO
 723              		.text
 724              	.Letext0:
 725              		.file 2 "Generated_Source\\PSoC5\\cytypes.h"