ARM GAS  C:\Users\Albert\AppData\Local\Temp\cc3ei9rC.s 			page 1


   1              		.syntax unified
   2              		.cpu cortex-m3
   3              		.fpu softvfp
   4              		.eabi_attribute 20, 1
   5              		.eabi_attribute 21, 1
   6              		.eabi_attribute 23, 3
   7              		.eabi_attribute 24, 1
   8              		.eabi_attribute 25, 1
   9              		.eabi_attribute 26, 1
  10              		.eabi_attribute 30, 6
  11              		.eabi_attribute 34, 1
  12              		.eabi_attribute 18, 4
  13              		.thumb
  14              		.syntax unified
  15              		.file	"LCD_PM.c"
  16              		.text
  17              	.Ltext0:
  18              		.cfi_sections	.debug_frame
  19              		.bss
  20              		.align	2
  21              	LCD_backup:
  22 0000 00       		.space	1
  23              		.section	.text.LCD_SaveConfig,"ax",%progbits
  24              		.align	2
  25              		.global	LCD_SaveConfig
  26              		.thumb
  27              		.thumb_func
  28              		.type	LCD_SaveConfig, %function
  29              	LCD_SaveConfig:
  30              	.LFB0:
  31              		.file 1 "Generated_Source\\PSoC5\\LCD_PM.c"
   1:Generated_Source\PSoC5/LCD_PM.c **** /*******************************************************************************
   2:Generated_Source\PSoC5/LCD_PM.c **** * File Name: LCD_PM.c
   3:Generated_Source\PSoC5/LCD_PM.c **** * Version 2.20
   4:Generated_Source\PSoC5/LCD_PM.c **** *
   5:Generated_Source\PSoC5/LCD_PM.c **** * Description:
   6:Generated_Source\PSoC5/LCD_PM.c **** *  This file provides the API source code for the Static Segment LCD component.
   7:Generated_Source\PSoC5/LCD_PM.c **** *
   8:Generated_Source\PSoC5/LCD_PM.c **** * Note:
   9:Generated_Source\PSoC5/LCD_PM.c **** *
  10:Generated_Source\PSoC5/LCD_PM.c **** ********************************************************************************
  11:Generated_Source\PSoC5/LCD_PM.c **** * Copyright 2008-2014, Cypress Semiconductor Corporation.  All rights reserved.
  12:Generated_Source\PSoC5/LCD_PM.c **** * You may use this file only in accordance with the license, terms, conditions,
  13:Generated_Source\PSoC5/LCD_PM.c **** * disclaimers, and limitations in the end user license agreement accompanying
  14:Generated_Source\PSoC5/LCD_PM.c **** * the software package with which this file was provided.
  15:Generated_Source\PSoC5/LCD_PM.c **** *******************************************************************************/
  16:Generated_Source\PSoC5/LCD_PM.c **** 
  17:Generated_Source\PSoC5/LCD_PM.c **** #include "LCD.h"
  18:Generated_Source\PSoC5/LCD_PM.c **** 
  19:Generated_Source\PSoC5/LCD_PM.c **** 
  20:Generated_Source\PSoC5/LCD_PM.c **** static LCD_BACKUP_STRUCT LCD_backup;
  21:Generated_Source\PSoC5/LCD_PM.c **** 
  22:Generated_Source\PSoC5/LCD_PM.c **** 
  23:Generated_Source\PSoC5/LCD_PM.c **** /*******************************************************************************
  24:Generated_Source\PSoC5/LCD_PM.c **** * Function Name: LCD_SaveConfig
  25:Generated_Source\PSoC5/LCD_PM.c **** ********************************************************************************
  26:Generated_Source\PSoC5/LCD_PM.c **** *
ARM GAS  C:\Users\Albert\AppData\Local\Temp\cc3ei9rC.s 			page 2


  27:Generated_Source\PSoC5/LCD_PM.c **** * Summary:
  28:Generated_Source\PSoC5/LCD_PM.c **** *  Does nothing, provided for consistency.
  29:Generated_Source\PSoC5/LCD_PM.c **** *
  30:Generated_Source\PSoC5/LCD_PM.c **** * Parameters:
  31:Generated_Source\PSoC5/LCD_PM.c **** *  None.
  32:Generated_Source\PSoC5/LCD_PM.c **** *
  33:Generated_Source\PSoC5/LCD_PM.c **** * Return:
  34:Generated_Source\PSoC5/LCD_PM.c **** *  None.
  35:Generated_Source\PSoC5/LCD_PM.c **** *
  36:Generated_Source\PSoC5/LCD_PM.c **** *******************************************************************************/
  37:Generated_Source\PSoC5/LCD_PM.c **** void LCD_SaveConfig(void) 
  38:Generated_Source\PSoC5/LCD_PM.c **** {
  32              		.loc 1 38 0
  33              		.cfi_startproc
  34              		@ args = 0, pretend = 0, frame = 0
  35              		@ frame_needed = 1, uses_anonymous_args = 0
  36              		@ link register save eliminated.
  37 0000 80B4     		push	{r7}
  38              		.cfi_def_cfa_offset 4
  39              		.cfi_offset 7, -4
  40 0002 00AF     		add	r7, sp, #0
  41              		.cfi_def_cfa_register 7
  39:Generated_Source\PSoC5/LCD_PM.c **** }
  42              		.loc 1 39 0
  43 0004 00BF     		nop
  44 0006 BD46     		mov	sp, r7
  45              		.cfi_def_cfa_register 13
  46              		@ sp needed
  47 0008 80BC     		pop	{r7}
  48              		.cfi_restore 7
  49              		.cfi_def_cfa_offset 0
  50 000a 7047     		bx	lr
  51              		.cfi_endproc
  52              	.LFE0:
  53              		.size	LCD_SaveConfig, .-LCD_SaveConfig
  54              		.section	.text.LCD_RestoreConfig,"ax",%progbits
  55              		.align	2
  56              		.global	LCD_RestoreConfig
  57              		.thumb
  58              		.thumb_func
  59              		.type	LCD_RestoreConfig, %function
  60              	LCD_RestoreConfig:
  61              	.LFB1:
  40:Generated_Source\PSoC5/LCD_PM.c **** 
  41:Generated_Source\PSoC5/LCD_PM.c **** 
  42:Generated_Source\PSoC5/LCD_PM.c **** /*******************************************************************************
  43:Generated_Source\PSoC5/LCD_PM.c **** * Function Name: LCD_RestoreConfig
  44:Generated_Source\PSoC5/LCD_PM.c **** ********************************************************************************
  45:Generated_Source\PSoC5/LCD_PM.c **** *
  46:Generated_Source\PSoC5/LCD_PM.c **** * Summary:
  47:Generated_Source\PSoC5/LCD_PM.c **** *  Does nothing, provided for consistency.
  48:Generated_Source\PSoC5/LCD_PM.c **** *
  49:Generated_Source\PSoC5/LCD_PM.c **** * Parameters:
  50:Generated_Source\PSoC5/LCD_PM.c **** *  None.
  51:Generated_Source\PSoC5/LCD_PM.c **** *
  52:Generated_Source\PSoC5/LCD_PM.c **** * Return:
  53:Generated_Source\PSoC5/LCD_PM.c **** *  None.
ARM GAS  C:\Users\Albert\AppData\Local\Temp\cc3ei9rC.s 			page 3


  54:Generated_Source\PSoC5/LCD_PM.c **** *
  55:Generated_Source\PSoC5/LCD_PM.c **** *******************************************************************************/
  56:Generated_Source\PSoC5/LCD_PM.c **** void LCD_RestoreConfig(void) 
  57:Generated_Source\PSoC5/LCD_PM.c **** {
  62              		.loc 1 57 0
  63              		.cfi_startproc
  64              		@ args = 0, pretend = 0, frame = 0
  65              		@ frame_needed = 1, uses_anonymous_args = 0
  66              		@ link register save eliminated.
  67 0000 80B4     		push	{r7}
  68              		.cfi_def_cfa_offset 4
  69              		.cfi_offset 7, -4
  70 0002 00AF     		add	r7, sp, #0
  71              		.cfi_def_cfa_register 7
  58:Generated_Source\PSoC5/LCD_PM.c **** }
  72              		.loc 1 58 0
  73 0004 00BF     		nop
  74 0006 BD46     		mov	sp, r7
  75              		.cfi_def_cfa_register 13
  76              		@ sp needed
  77 0008 80BC     		pop	{r7}
  78              		.cfi_restore 7
  79              		.cfi_def_cfa_offset 0
  80 000a 7047     		bx	lr
  81              		.cfi_endproc
  82              	.LFE1:
  83              		.size	LCD_RestoreConfig, .-LCD_RestoreConfig
  84              		.section	.text.LCD_Sleep,"ax",%progbits
  85              		.align	2
  86              		.global	LCD_Sleep
  87              		.thumb
  88              		.thumb_func
  89              		.type	LCD_Sleep, %function
  90              	LCD_Sleep:
  91              	.LFB2:
  59:Generated_Source\PSoC5/LCD_PM.c **** 
  60:Generated_Source\PSoC5/LCD_PM.c **** 
  61:Generated_Source\PSoC5/LCD_PM.c **** /*******************************************************************************
  62:Generated_Source\PSoC5/LCD_PM.c **** * Function Name: LCD_Sleep
  63:Generated_Source\PSoC5/LCD_PM.c **** ********************************************************************************
  64:Generated_Source\PSoC5/LCD_PM.c **** *
  65:Generated_Source\PSoC5/LCD_PM.c **** * Summary:
  66:Generated_Source\PSoC5/LCD_PM.c **** *  Prepares the component for entering the sleep mode.
  67:Generated_Source\PSoC5/LCD_PM.c **** *
  68:Generated_Source\PSoC5/LCD_PM.c **** * Parameters:
  69:Generated_Source\PSoC5/LCD_PM.c **** *  None.
  70:Generated_Source\PSoC5/LCD_PM.c **** *
  71:Generated_Source\PSoC5/LCD_PM.c **** * Return:
  72:Generated_Source\PSoC5/LCD_PM.c **** *  None.
  73:Generated_Source\PSoC5/LCD_PM.c **** *
  74:Generated_Source\PSoC5/LCD_PM.c **** * Reentrant:
  75:Generated_Source\PSoC5/LCD_PM.c **** *  No.
  76:Generated_Source\PSoC5/LCD_PM.c **** *
  77:Generated_Source\PSoC5/LCD_PM.c **** *******************************************************************************/
  78:Generated_Source\PSoC5/LCD_PM.c **** void LCD_Sleep(void) 
  79:Generated_Source\PSoC5/LCD_PM.c **** {
  92              		.loc 1 79 0
ARM GAS  C:\Users\Albert\AppData\Local\Temp\cc3ei9rC.s 			page 4


  93              		.cfi_startproc
  94              		@ args = 0, pretend = 0, frame = 0
  95              		@ frame_needed = 1, uses_anonymous_args = 0
  96 0000 80B5     		push	{r7, lr}
  97              		.cfi_def_cfa_offset 8
  98              		.cfi_offset 7, -8
  99              		.cfi_offset 14, -4
 100 0002 00AF     		add	r7, sp, #0
 101              		.cfi_def_cfa_register 7
  80:Generated_Source\PSoC5/LCD_PM.c ****     LCD_backup.enableState = LCD_enableState;
 102              		.loc 1 80 0
 103 0004 044B     		ldr	r3, .L4
 104 0006 1A78     		ldrb	r2, [r3]	@ zero_extendqisi2
 105 0008 044B     		ldr	r3, .L4+4
 106 000a 1A70     		strb	r2, [r3]
  81:Generated_Source\PSoC5/LCD_PM.c ****     LCD_SaveConfig();
 107              		.loc 1 81 0
 108 000c FFF7FEFF 		bl	LCD_SaveConfig
  82:Generated_Source\PSoC5/LCD_PM.c ****     LCD_Stop();
 109              		.loc 1 82 0
 110 0010 FFF7FEFF 		bl	LCD_Stop
  83:Generated_Source\PSoC5/LCD_PM.c **** }
 111              		.loc 1 83 0
 112 0014 00BF     		nop
 113 0016 80BD     		pop	{r7, pc}
 114              	.L5:
 115              		.align	2
 116              	.L4:
 117 0018 00000000 		.word	LCD_enableState
 118 001c 00000000 		.word	LCD_backup
 119              		.cfi_endproc
 120              	.LFE2:
 121              		.size	LCD_Sleep, .-LCD_Sleep
 122              		.section	.text.LCD_Wakeup,"ax",%progbits
 123              		.align	2
 124              		.global	LCD_Wakeup
 125              		.thumb
 126              		.thumb_func
 127              		.type	LCD_Wakeup, %function
 128              	LCD_Wakeup:
 129              	.LFB3:
  84:Generated_Source\PSoC5/LCD_PM.c **** 
  85:Generated_Source\PSoC5/LCD_PM.c **** 
  86:Generated_Source\PSoC5/LCD_PM.c **** /*******************************************************************************
  87:Generated_Source\PSoC5/LCD_PM.c **** * Function Name: LCD_Wakeup
  88:Generated_Source\PSoC5/LCD_PM.c **** ********************************************************************************
  89:Generated_Source\PSoC5/LCD_PM.c **** *
  90:Generated_Source\PSoC5/LCD_PM.c **** * Summary:
  91:Generated_Source\PSoC5/LCD_PM.c **** *  Wakes the component from sleep mode. Configures DMA and enables the component
  92:Generated_Source\PSoC5/LCD_PM.c **** *  for normal operation.
  93:Generated_Source\PSoC5/LCD_PM.c **** *
  94:Generated_Source\PSoC5/LCD_PM.c **** * Parameters:
  95:Generated_Source\PSoC5/LCD_PM.c **** *  LCD_enableState - Global variable.
  96:Generated_Source\PSoC5/LCD_PM.c **** *
  97:Generated_Source\PSoC5/LCD_PM.c **** * Return:
  98:Generated_Source\PSoC5/LCD_PM.c **** *  Status one of standard status for PSoC3 Component
  99:Generated_Source\PSoC5/LCD_PM.c **** *       CYRET_SUCCESS - Function completed successfully.
ARM GAS  C:\Users\Albert\AppData\Local\Temp\cc3ei9rC.s 			page 5


 100:Generated_Source\PSoC5/LCD_PM.c **** *       CYRET_LOCKED - The object was locked, already in use. Some of TDs or
 101:Generated_Source\PSoC5/LCD_PM.c **** *                      a channel already in use.
 102:Generated_Source\PSoC5/LCD_PM.c **** *
 103:Generated_Source\PSoC5/LCD_PM.c **** * Reentrant:
 104:Generated_Source\PSoC5/LCD_PM.c **** *  No.
 105:Generated_Source\PSoC5/LCD_PM.c **** *
 106:Generated_Source\PSoC5/LCD_PM.c **** *******************************************************************************/
 107:Generated_Source\PSoC5/LCD_PM.c **** void LCD_Wakeup(void) 
 108:Generated_Source\PSoC5/LCD_PM.c **** {
 130              		.loc 1 108 0
 131              		.cfi_startproc
 132              		@ args = 0, pretend = 0, frame = 0
 133              		@ frame_needed = 1, uses_anonymous_args = 0
 134 0000 80B5     		push	{r7, lr}
 135              		.cfi_def_cfa_offset 8
 136              		.cfi_offset 7, -8
 137              		.cfi_offset 14, -4
 138 0002 00AF     		add	r7, sp, #0
 139              		.cfi_def_cfa_register 7
 109:Generated_Source\PSoC5/LCD_PM.c ****     LCD_RestoreConfig();
 140              		.loc 1 109 0
 141 0004 FFF7FEFF 		bl	LCD_RestoreConfig
 110:Generated_Source\PSoC5/LCD_PM.c **** 
 111:Generated_Source\PSoC5/LCD_PM.c ****     if(LCD_backup.enableState == 1u)
 142              		.loc 1 111 0
 143 0008 034B     		ldr	r3, .L9
 144 000a 1B78     		ldrb	r3, [r3]	@ zero_extendqisi2
 145 000c 012B     		cmp	r3, #1
 146 000e 01D1     		bne	.L8
 112:Generated_Source\PSoC5/LCD_PM.c ****     {
 113:Generated_Source\PSoC5/LCD_PM.c ****         LCD_Enable();
 147              		.loc 1 113 0
 148 0010 FFF7FEFF 		bl	LCD_Enable
 149              	.L8:
 114:Generated_Source\PSoC5/LCD_PM.c ****     }
 115:Generated_Source\PSoC5/LCD_PM.c **** }
 150              		.loc 1 115 0
 151 0014 00BF     		nop
 152 0016 80BD     		pop	{r7, pc}
 153              	.L10:
 154              		.align	2
 155              	.L9:
 156 0018 00000000 		.word	LCD_backup
 157              		.cfi_endproc
 158              	.LFE3:
 159              		.size	LCD_Wakeup, .-LCD_Wakeup
 160              		.text
 161              	.Letext0:
 162              		.file 2 "Generated_Source\\PSoC5\\cytypes.h"
 163              		.file 3 "Generated_Source\\PSoC5\\LCD.h"