ARM GAS  C:\Users\Albert\AppData\Local\Temp\ccg6k6kf.s 			page 1


   1              		.syntax unified
   2              		.cpu cortex-m3
   3              		.fpu softvfp
   4              		.eabi_attribute 20, 1
   5              		.eabi_attribute 21, 1
   6              		.eabi_attribute 23, 3
   7              		.eabi_attribute 24, 1
   8              		.eabi_attribute 25, 1
   9              		.eabi_attribute 26, 1
  10              		.eabi_attribute 30, 6
  11              		.eabi_attribute 34, 1
  12              		.eabi_attribute 18, 4
  13              		.thumb
  14              		.syntax unified
  15              		.file	"main.c"
  16              		.text
  17              	.Ltext0:
  18              		.cfi_sections	.debug_frame
  19              		.comm	thetaShoulder,80,8
  20              		.comm	thetaWheel,80,8
  21              		.comm	torque,80,8
  22              		.comm	thetaWheelDot,80,8
  23              		.comm	thetaShoulderDot,80,8
  24              		.global	iError
  25              		.bss
  26              		.align	3
  27              		.type	iError, %object
  28              		.size	iError, 8
  29              	iError:
  30 0000 00000000 		.space	8
  30      00000000 
  31              		.comm	positiveFreeTorque,8,8
  32              		.comm	negativeFreeTorque,8,8
  33              		.comm	enableMotor,1,1
  34              		.comm	sampleADC,1,1
  35              		.section	.text.isr_1_ISR,"ax",%progbits
  36              		.align	2
  37              		.global	isr_1_ISR
  38              		.thumb
  39              		.thumb_func
  40              		.type	isr_1_ISR, %function
  41              	isr_1_ISR:
  42              	.LFB63:
  43              		.file 1 "main.c"
   1:main.c        **** /* ========================================
   2:main.c        ****  *
   3:main.c        ****  * Copyright Albert Wu, 2018
   4:main.c        ****  * All Rights Reserved
   5:main.c        ****  * UNPUBLISHED, LICENSED SOFTWARE.
   6:main.c        ****  *
   7:main.c        ****  * CONFIDENTIAL AND PROPRIETARY INFORMATION
   8:main.c        ****  * WHICH IS THE PROPERTY OF MIT 6.115.
   9:main.c        ****  *
  10:main.c        ****  * This file is necessary for your project to build.
  11:main.c        ****  * Please do not delete it.
  12:main.c        ****  *
  13:main.c        ****  * ========================================
ARM GAS  C:\Users\Albert\AppData\Local\Temp\ccg6k6kf.s 			page 2


  14:main.c        **** */
  15:main.c        **** 
  16:main.c        **** //#define TEST
  17:main.c        **** //#define TEST_DEC
  18:main.c        **** //#define TEST_THETA_WHEEL
  19:main.c        **** //#define TEST_THETA_SHOULDER
  20:main.c        **** //#define TEST_COMM
  21:main.c        **** //#define TEST_ADC
  22:main.c        **** //#define TEST_PRINT_double
  23:main.c        **** //#define TEST_I_SENSING
  24:main.c        **** //#define TEST_TORQUE_CONTROLLER
  25:main.c        **** //#define TEST_STRUCT
  26:main.c        **** //#define TEST_TORQUE_SENSING
  27:main.c        **** //#define TESE_TORQUE_TRACKING
  28:main.c        **** //#define TEST_RUNNING_AVG
  29:main.c        **** //#define TEST_KT
  30:main.c        **** //#define TEST_TIME
  31:main.c        **** //end
  32:main.c        **** 
  33:main.c        **** 
  34:main.c        **** #include <device.h>
  35:main.c        **** #include "sensorStructs.h"
  36:main.c        **** #include "hardware.h"
  37:main.c        **** #include "controllers.h"
  38:main.c        **** #include "controlParameters.h"
  39:main.c        **** #ifdef TEST
  40:main.c        ****     #include "test.h"
  41:main.c        **** #endif
  42:main.c        **** 
  43:main.c        **** //Initialize global sensor variables
  44:main.c        **** MemoryVariable thetaShoulder;
  45:main.c        **** MemoryVariable thetaWheel;
  46:main.c        **** MemoryVariable torque;
  47:main.c        **** MemoryVariable thetaWheelDot;
  48:main.c        **** MemoryVariable thetaShoulderDot;
  49:main.c        **** 
  50:main.c        **** double iError =0;
  51:main.c        **** 
  52:main.c        **** double positiveFreeTorque;
  53:main.c        **** double negativeFreeTorque;
  54:main.c        **** //On-off switch
  55:main.c        **** _Bool enableMotor;
  56:main.c        **** _Bool sampleADC;
  57:main.c        **** /*
  58:main.c        **** int RUNNING_AVG_SAMPLES=500.0;
  59:main.c        **** double adcRunningAvg;
  60:main.c        **** */
  61:main.c        **** CY_ISR(isr_1_ISR)
  62:main.c        **** {
  44              		.loc 1 62 0
  45              		.cfi_startproc
  46              		@ args = 0, pretend = 0, frame = 0
  47              		@ frame_needed = 1, uses_anonymous_args = 0
  48              		@ link register save eliminated.
  49 0000 80B4     		push	{r7}
  50              		.cfi_def_cfa_offset 4
  51              		.cfi_offset 7, -4
ARM GAS  C:\Users\Albert\AppData\Local\Temp\ccg6k6kf.s 			page 3


  52 0002 00AF     		add	r7, sp, #0
  53              		.cfi_def_cfa_register 7
  63:main.c        ****     enableMotor = !enableMotor; //toggle motor
  54              		.loc 1 63 0
  55 0004 094B     		ldr	r3, .L2
  56 0006 1B78     		ldrb	r3, [r3]	@ zero_extendqisi2
  57 0008 002B     		cmp	r3, #0
  58 000a 14BF     		ite	ne
  59 000c 0123     		movne	r3, #1
  60 000e 0023     		moveq	r3, #0
  61 0010 DBB2     		uxtb	r3, r3
  62 0012 83F00103 		eor	r3, r3, #1
  63 0016 DBB2     		uxtb	r3, r3
  64 0018 03F00103 		and	r3, r3, #1
  65 001c DAB2     		uxtb	r2, r3
  66 001e 034B     		ldr	r3, .L2
  67 0020 1A70     		strb	r2, [r3]
  64:main.c        **** }
  68              		.loc 1 64 0
  69 0022 00BF     		nop
  70 0024 BD46     		mov	sp, r7
  71              		.cfi_def_cfa_register 13
  72              		@ sp needed
  73 0026 80BC     		pop	{r7}
  74              		.cfi_restore 7
  75              		.cfi_def_cfa_offset 0
  76 0028 7047     		bx	lr
  77              	.L3:
  78 002a 00BF     		.align	2
  79              	.L2:
  80 002c 00000000 		.word	enableMotor
  81              		.cfi_endproc
  82              	.LFE63:
  83              		.size	isr_1_ISR, .-isr_1_ISR
  84              		.section	.text.isr_2_ISR,"ax",%progbits
  85              		.align	2
  86              		.global	isr_2_ISR
  87              		.thumb
  88              		.thumb_func
  89              		.type	isr_2_ISR, %function
  90              	isr_2_ISR:
  91              	.LFB64:
  65:main.c        **** CY_ISR(isr_2_ISR)
  66:main.c        **** {
  92              		.loc 1 66 0
  93              		.cfi_startproc
  94              		@ args = 0, pretend = 0, frame = 0
  95              		@ frame_needed = 1, uses_anonymous_args = 0
  96              		@ link register save eliminated.
  97 0000 80B4     		push	{r7}
  98              		.cfi_def_cfa_offset 4
  99              		.cfi_offset 7, -4
 100 0002 00AF     		add	r7, sp, #0
 101              		.cfi_def_cfa_register 7
  67:main.c        ****     sampleADC = 1;
 102              		.loc 1 67 0
 103 0004 034B     		ldr	r3, .L5
ARM GAS  C:\Users\Albert\AppData\Local\Temp\ccg6k6kf.s 			page 4


 104 0006 0122     		movs	r2, #1
 105 0008 1A70     		strb	r2, [r3]
  68:main.c        **** }
 106              		.loc 1 68 0
 107 000a 00BF     		nop
 108 000c BD46     		mov	sp, r7
 109              		.cfi_def_cfa_register 13
 110              		@ sp needed
 111 000e 80BC     		pop	{r7}
 112              		.cfi_restore 7
 113              		.cfi_def_cfa_offset 0
 114 0010 7047     		bx	lr
 115              	.L6:
 116 0012 00BF     		.align	2
 117              	.L5:
 118 0014 00000000 		.word	sampleADC
 119              		.cfi_endproc
 120              	.LFE64:
 121              		.size	isr_2_ISR, .-isr_2_ISR
 122              		.section	.rodata
 123              		.align	2
 124              	.LC0:
 125 0000 496E6974 		.ascii	"Init HW...\000"
 125      2048572E 
 125      2E2E00
 126 000b 00       		.align	2
 127              	.LC1:
 128 000c 43616C69 		.ascii	"Calibrating\000"
 128      62726174 
 128      696E6700 
 129              		.align	2
 130              	.LC2:
 131 0018 446F6E27 		.ascii	"Don't move...\000"
 131      74206D6F 
 131      76652E2E 
 131      2E00
 132 0026 0000     		.align	2
 133              	.LC3:
 134 0028 52656164 		.ascii	"Ready!\000"
 134      792100
 135 002f 00       		.align	2
 136              	.LC4:
 137 0030 53746172 		.ascii	"Starting...\000"
 137      74696E67 
 137      2E2E2E00 
 138              		.align	2
 139              	.LC5:
 140 003c 4C515200 		.ascii	"LQR\000"
 141              		.align	2
 142              	.LC6:
 143 0040 456E6572 		.ascii	"Energy\000"
 143      677900
 144 0047 00       		.align	2
 145              	.LC7:
 146 0048 6D546865 		.ascii	"mTheta:\000"
 146      74613A00 
 147              		.global	__aeabi_dmul
ARM GAS  C:\Users\Albert\AppData\Local\Temp\ccg6k6kf.s 			page 5


 148              		.section	.text.main,"ax",%progbits
 149              		.align	2
 150              		.global	main
 151              		.thumb
 152              		.thumb_func
 153              		.type	main, %function
 154              	main:
 155              	.LFB65:
  69:main.c        **** 
  70:main.c        **** 
  71:main.c        **** void main()
  72:main.c        **** {	
 156              		.loc 1 72 0
 157              		.cfi_startproc
 158              		@ args = 0, pretend = 0, frame = 96
 159              		@ frame_needed = 1, uses_anonymous_args = 0
 160 0000 90B5     		push	{r4, r7, lr}
 161              		.cfi_def_cfa_offset 12
 162              		.cfi_offset 4, -12
 163              		.cfi_offset 7, -8
 164              		.cfi_offset 14, -4
 165 0002 99B0     		sub	sp, sp, #100
 166              		.cfi_def_cfa_offset 112
 167 0004 00AF     		add	r7, sp, #0
 168              		.cfi_def_cfa_register 7
  73:main.c        ****     //Enable interrupts
  74:main.c        ****     CYGlobalIntEnable;
 169              		.loc 1 74 0
 170              		.syntax unified
 171              	@ 74 "main.c" 1
 172 0006 62B6     		CPSIE   i
 173              	@ 0 "" 2
  75:main.c        ****     isr_1_StartEx(isr_1_ISR);    
 174              		.loc 1 75 0
 175              		.thumb
 176              		.syntax unified
 177 0008 6C48     		ldr	r0, .L15
 178 000a FFF7FEFF 		bl	isr_1_StartEx
  76:main.c        ****     isr_2_StartEx(isr_2_ISR);    
 179              		.loc 1 76 0
 180 000e 6C48     		ldr	r0, .L15+4
 181 0010 FFF7FEFF 		bl	isr_2_StartEx
  77:main.c        ****     //Initialize LCD
  78:main.c        ****     LCD_Start();					    
 182              		.loc 1 78 0
 183 0014 FFF7FEFF 		bl	LCD_Start
  79:main.c        ****     LCD_ClearDisplay();
 184              		.loc 1 79 0
 185 0018 0120     		movs	r0, #1
 186 001a FFF7FEFF 		bl	LCD_WriteControl
  80:main.c        ****     LCD_PrintString("Init HW...");
 187              		.loc 1 80 0
 188 001e 6948     		ldr	r0, .L15+8
 189 0020 FFF7FEFF 		bl	LCD_PrintString
  81:main.c        ****     //Initialize hardware
  82:main.c        ****     Clock_1_Start();
 190              		.loc 1 82 0
ARM GAS  C:\Users\Albert\AppData\Local\Temp\ccg6k6kf.s 			page 6


 191 0024 FFF7FEFF 		bl	Clock_1_Start
  83:main.c        ****     Clock_2_Start();
 192              		.loc 1 83 0
 193 0028 FFF7FEFF 		bl	Clock_2_Start
  84:main.c        ****     Clock_3_Start();
 194              		.loc 1 84 0
 195 002c FFF7FEFF 		bl	Clock_3_Start
  85:main.c        ****     Clock_Enc_Motor_Start();
 196              		.loc 1 85 0
 197 0030 FFF7FEFF 		bl	Clock_Enc_Motor_Start
  86:main.c        ****     Clock_Enc_Shoulder_Start();
 198              		.loc 1 86 0
 199 0034 FFF7FEFF 		bl	Clock_Enc_Shoulder_Start
  87:main.c        ****     Counter_1_Start();
 200              		.loc 1 87 0
 201 0038 FFF7FEFF 		bl	Counter_1_Start
  88:main.c        ****     initADC();
 202              		.loc 1 88 0
 203 003c FFF7FEFF 		bl	initADC
  89:main.c        ****     initQuadDec();
 204              		.loc 1 89 0
 205 0040 FFF7FEFF 		bl	initQuadDec
  90:main.c        ****     initUART();
 206              		.loc 1 90 0
 207 0044 FFF7FEFF 		bl	initUART
  91:main.c        ****     
  92:main.c        ****     CyDelay(50);
 208              		.loc 1 92 0
 209 0048 3220     		movs	r0, #50
 210 004a FFF7FEFF 		bl	CyDelay
  93:main.c        ****     LCD_ClearDisplay();
 211              		.loc 1 93 0
 212 004e 0120     		movs	r0, #1
 213 0050 FFF7FEFF 		bl	LCD_WriteControl
  94:main.c        ****     LCD_PrintString("Calibrating");
 214              		.loc 1 94 0
 215 0054 5C48     		ldr	r0, .L15+12
 216 0056 FFF7FEFF 		bl	LCD_PrintString
  95:main.c        ****     LCD_Position(1, 0);  //line feed
 217              		.loc 1 95 0
 218 005a 0021     		movs	r1, #0
 219 005c 0120     		movs	r0, #1
 220 005e FFF7FEFF 		bl	LCD_Position
  96:main.c        ****     LCD_PrintString("Don't move...");
 221              		.loc 1 96 0
 222 0062 5A48     		ldr	r0, .L15+16
 223 0064 FFF7FEFF 		bl	LCD_PrintString
  97:main.c        ****     //set getter
  98:main.c        ****     thetaShoulder.valueGetter = &getShoulderAngleReading;
 224              		.loc 1 98 0
 225 0068 594B     		ldr	r3, .L15+20
 226 006a 5A4A     		ldr	r2, .L15+24
 227 006c 9A64     		str	r2, [r3, #72]
  99:main.c        ****     thetaWheel.valueGetter = &getMotorAngleReading;
 228              		.loc 1 99 0
 229 006e 5A4B     		ldr	r3, .L15+28
 230 0070 5A4A     		ldr	r2, .L15+32
ARM GAS  C:\Users\Albert\AppData\Local\Temp\ccg6k6kf.s 			page 7


 231 0072 9A64     		str	r2, [r3, #72]
 100:main.c        ****     torque.valueGetter = &getTorque;
 232              		.loc 1 100 0
 233 0074 5A4B     		ldr	r3, .L15+36
 234 0076 5B4A     		ldr	r2, .L15+40
 235 0078 9A64     		str	r2, [r3, #72]
 101:main.c        ****     MemoryVariable freeTorque;
 102:main.c        ****     freeTorque.valueGetter = &getTorque;
 236              		.loc 1 102 0
 237 007a 5A4B     		ldr	r3, .L15+40
 238 007c BB64     		str	r3, [r7, #72]
 103:main.c        ****     //zero variables
 104:main.c        ****     initToZero(&thetaShoulder);
 239              		.loc 1 104 0
 240 007e 5448     		ldr	r0, .L15+20
 241 0080 FFF7FEFF 		bl	initToZero
 105:main.c        ****     initToZero(&thetaWheel);
 242              		.loc 1 105 0
 243 0084 5448     		ldr	r0, .L15+28
 244 0086 FFF7FEFF 		bl	initToZero
 106:main.c        ****     initToZero(&torque);
 245              		.loc 1 106 0
 246 008a 5548     		ldr	r0, .L15+36
 247 008c FFF7FEFF 		bl	initToZero
 107:main.c        ****     enableMotor=0;
 248              		.loc 1 107 0
 249 0090 554B     		ldr	r3, .L15+44
 250 0092 0022     		movs	r2, #0
 251 0094 1A70     		strb	r2, [r3]
 108:main.c        ****     //Set positive and negative null current
 109:main.c        ****     sendValue(0,1);
 252              		.loc 1 109 0
 253 0096 0121     		movs	r1, #1
 254 0098 0020     		movs	r0, #0
 255 009a FFF7FEFF 		bl	sendValue
 110:main.c        ****     CyDelay(100);
 256              		.loc 1 110 0
 257 009e 6420     		movs	r0, #100
 258 00a0 FFF7FEFF 		bl	CyDelay
 111:main.c        ****     initToZero(&freeTorque);
 259              		.loc 1 111 0
 260 00a4 3B46     		mov	r3, r7
 261 00a6 1846     		mov	r0, r3
 262 00a8 FFF7FEFF 		bl	initToZero
 112:main.c        ****     positiveFreeTorque = freeTorque.offset;
 263              		.loc 1 112 0
 264 00ac D7E91034 		ldrd	r3, [r7, #64]
 265 00b0 4E4A     		ldr	r2, .L15+48
 266 00b2 C2E90034 		strd	r3, [r2]
 113:main.c        ****     CyDelay(100);
 267              		.loc 1 113 0
 268 00b6 6420     		movs	r0, #100
 269 00b8 FFF7FEFF 		bl	CyDelay
 114:main.c        ****     sendValue(0,0);
 270              		.loc 1 114 0
 271 00bc 0021     		movs	r1, #0
 272 00be 0020     		movs	r0, #0
ARM GAS  C:\Users\Albert\AppData\Local\Temp\ccg6k6kf.s 			page 8


 273 00c0 FFF7FEFF 		bl	sendValue
 115:main.c        ****     initToZero(&freeTorque);
 274              		.loc 1 115 0
 275 00c4 3B46     		mov	r3, r7
 276 00c6 1846     		mov	r0, r3
 277 00c8 FFF7FEFF 		bl	initToZero
 116:main.c        ****     negativeFreeTorque = freeTorque.offset;
 278              		.loc 1 116 0
 279 00cc D7E91034 		ldrd	r3, [r7, #64]
 280 00d0 474A     		ldr	r2, .L15+52
 281 00d2 C2E90034 		strd	r3, [r2]
 117:main.c        ****     
 118:main.c        ****     
 119:main.c        ****     LCD_ClearDisplay();
 282              		.loc 1 119 0
 283 00d6 0120     		movs	r0, #1
 284 00d8 FFF7FEFF 		bl	LCD_WriteControl
 120:main.c        ****     LCD_PrintString("Ready!");
 285              		.loc 1 120 0
 286 00dc 4548     		ldr	r0, .L15+56
 287 00de FFF7FEFF 		bl	LCD_PrintString
 121:main.c        ****     while(!enableMotor)
 288              		.loc 1 121 0
 289 00e2 00BF     		nop
 290              	.L8:
 291              		.loc 1 121 0 is_stmt 0 discriminator 1
 292 00e4 404B     		ldr	r3, .L15+44
 293 00e6 1B78     		ldrb	r3, [r3]	@ zero_extendqisi2
 294 00e8 83F00103 		eor	r3, r3, #1
 295 00ec DBB2     		uxtb	r3, r3
 296 00ee 002B     		cmp	r3, #0
 297 00f0 F8D1     		bne	.L8
 122:main.c        ****     {
 123:main.c        ****     }
 124:main.c        ****     LCD_ClearDisplay();
 298              		.loc 1 124 0 is_stmt 1
 299 00f2 0120     		movs	r0, #1
 300 00f4 FFF7FEFF 		bl	LCD_WriteControl
 125:main.c        ****     LCD_PrintString("Starting...");
 301              		.loc 1 125 0
 302 00f8 3F48     		ldr	r0, .L15+60
 303 00fa FFF7FEFF 		bl	LCD_PrintString
 126:main.c        ****     
 127:main.c        ****     #ifdef TEST
 128:main.c        ****         //sensor testing mode
 129:main.c        ****         //initialize sensors
 130:main.c        ****         initTests();
 131:main.c        ****         int pause = 50;
 132:main.c        ****         while(1)
 133:main.c        ****         {
 134:main.c        ****             #ifdef TEST_DEC
 135:main.c        ****             testDec();
 136:main.c        ****             CyDelay(pause);
 137:main.c        ****             #endif
 138:main.c        ****             #ifdef TEST_THETA_WHEEL
 139:main.c        ****             testThetaWheel();
 140:main.c        ****             CyDelay(pause);
ARM GAS  C:\Users\Albert\AppData\Local\Temp\ccg6k6kf.s 			page 9


 141:main.c        ****             #endif
 142:main.c        ****             #ifdef TEST_THETA_SHOULDER
 143:main.c        ****             testThetaShoulder();
 144:main.c        ****             CyDelay(pause);
 145:main.c        ****             #endif
 146:main.c        ****             #ifdef TEST_ADC
 147:main.c        ****             testADC();
 148:main.c        ****             CyDelay(pause);
 149:main.c        ****             #endif
 150:main.c        ****             #ifdef TEST_COMM
 151:main.c        ****             testComm();
 152:main.c        ****             CyDelay(pause);
 153:main.c        ****             #endif
 154:main.c        ****             #ifdef TEST_PRINT_double
 155:main.c        ****             testPrintdouble();
 156:main.c        ****             #endif
 157:main.c        ****             #ifdef TEST_I_SENSING
 158:main.c        ****             testISensing();
 159:main.c        ****             CyDelay(pause);
 160:main.c        ****             #endif
 161:main.c        ****             #ifdef TEST_TORQUE_CONTROLLER
 162:main.c        ****             testTorqueController();
 163:main.c        ****             CyDelay(pause);
 164:main.c        ****             #endif
 165:main.c        ****             #ifdef TEST_STRUCT
 166:main.c        ****                 LCD_ClearDisplay();
 167:main.c        ****                 printdouble(getValue(&thetaWheel),3);
 168:main.c        ****                 LCD_Position(1, 0);  //line feed
 169:main.c        ****                 printdouble(getDerivative(&thetaWheel),3);
 170:main.c        ****                 CyDelay(50);
 171:main.c        ****             #endif
 172:main.c        ****             #ifdef TEST_TORQUE_SENSING
 173:main.c        ****                 LCD_ClearDisplay();
 174:main.c        ****                 printdouble(getValue(&torque),3);
 175:main.c        ****                 CyDelay(50);
 176:main.c        ****             #endif
 177:main.c        ****             #ifdef TEST_RUNNING_AVG
 178:main.c        ****                 LCD_ClearDisplay();
 179:main.c        ****                 printdouble(adcRunningAvg,0);
 180:main.c        ****                 CyDelay(50);
 181:main.c        ****             #endif
 182:main.c        ****             #ifdef TEST_KT
 183:main.c        ****                 LCD_ClearDisplay();
 184:main.c        ****                 printdouble(getValue(&thetaWheel),3);
 185:main.c        ****                 LCD_Position(1, 0);  //line feed
 186:main.c        ****                 printdouble(getDerivativeWithoutUpdate(&thetaWheel),3);
 187:main.c        ****                 CyDelay(50);
 188:main.c        ****             #endif
 189:main.c        ****             #ifdef TEST_TIME
 190:main.c        ****                 LCD_ClearDisplay();
 191:main.c        ****                 getValue(&thetaShoulder);
 192:main.c        ****                 printdouble(getTime(&thetaShoulder),3);
 193:main.c        ****                 CyDelay(200);
 194:main.c        ****             #endif
 195:main.c        ****         }
 196:main.c        ****         
 197:main.c        ****     #endif
ARM GAS  C:\Users\Albert\AppData\Local\Temp\ccg6k6kf.s 			page 10


 198:main.c        ****     
 199:main.c        ****     #ifndef TEST
 200:main.c        ****     //regular operation
 201:main.c        ****     double u = 0;
 304              		.loc 1 201 0
 305 00fe 4FF00003 		mov	r3, #0
 306 0102 4FF00004 		mov	r4, #0
 307 0106 C7E91634 		strd	r3, [r7, #88]
 202:main.c        ****     int i = 0;
 308              		.loc 1 202 0
 309 010a 0023     		movs	r3, #0
 310 010c 7B65     		str	r3, [r7, #84]
 311              	.L14:
 203:main.c        ****     while(1)
 204:main.c        ****     {
 205:main.c        ****         i++;
 312              		.loc 1 205 0
 313 010e 7B6D     		ldr	r3, [r7, #84]
 314 0110 0133     		adds	r3, r3, #1
 315 0112 7B65     		str	r3, [r7, #84]
 206:main.c        ****         if(inLQRRange())
 316              		.loc 1 206 0
 317 0114 FFF7FEFF 		bl	inLQRRange
 318 0118 0346     		mov	r3, r0
 319 011a 002B     		cmp	r3, #0
 320 011c 11D0     		beq	.L9
 207:main.c        ****         {
 208:main.c        ****             if(i==3)
 321              		.loc 1 208 0
 322 011e 7B6D     		ldr	r3, [r7, #84]
 323 0120 032B     		cmp	r3, #3
 324 0122 09D1     		bne	.L10
 209:main.c        ****             {
 210:main.c        ****                 LCD_ClearDisplay();
 325              		.loc 1 210 0
 326 0124 0120     		movs	r0, #1
 327 0126 FFF7FEFF 		bl	LCD_WriteControl
 211:main.c        ****                 LCD_PrintString("LQR");
 328              		.loc 1 211 0
 329 012a 3448     		ldr	r0, .L15+64
 330 012c FFF7FEFF 		bl	LCD_PrintString
 212:main.c        ****                 LCD_Position(1, 0);  //line feed
 331              		.loc 1 212 0
 332 0130 0021     		movs	r1, #0
 333 0132 0120     		movs	r0, #1
 334 0134 FFF7FEFF 		bl	LCD_Position
 335              	.L10:
 213:main.c        ****             }
 214:main.c        ****             u = lqrController();
 336              		.loc 1 214 0
 337 0138 FFF7FEFF 		bl	lqrController
 338 013c C7E91601 		strd	r0, [r7, #88]
 339 0140 17E0     		b	.L11
 340              	.L9:
 215:main.c        ****         }
 216:main.c        ****         else
 217:main.c        ****         {
ARM GAS  C:\Users\Albert\AppData\Local\Temp\ccg6k6kf.s 			page 11


 218:main.c        ****             if(i==3)
 341              		.loc 1 218 0
 342 0142 7B6D     		ldr	r3, [r7, #84]
 343 0144 032B     		cmp	r3, #3
 344 0146 09D1     		bne	.L12
 219:main.c        ****             {
 220:main.c        ****                 LCD_ClearDisplay();
 345              		.loc 1 220 0
 346 0148 0120     		movs	r0, #1
 347 014a FFF7FEFF 		bl	LCD_WriteControl
 221:main.c        ****                 LCD_PrintString("Energy");
 348              		.loc 1 221 0
 349 014e 2C48     		ldr	r0, .L15+68
 350 0150 FFF7FEFF 		bl	LCD_PrintString
 222:main.c        ****                 LCD_Position(1, 0);  //line feed
 351              		.loc 1 222 0
 352 0154 0021     		movs	r1, #0
 353 0156 0120     		movs	r0, #1
 354 0158 FFF7FEFF 		bl	LCD_Position
 355              	.L12:
 223:main.c        ****             }
 224:main.c        ****             u = energyController();
 356              		.loc 1 224 0
 357 015c FFF7FEFF 		bl	energyController
 358 0160 C7E91601 		strd	r0, [r7, #88]
 225:main.c        ****             iError = 0;
 359              		.loc 1 225 0
 360 0164 274A     		ldr	r2, .L15+72
 361 0166 4FF00003 		mov	r3, #0
 362 016a 4FF00004 		mov	r4, #0
 363 016e C2E90034 		strd	r3, [r2]
 364              	.L11:
 226:main.c        ****         }
 227:main.c        ****         if(i==3)
 365              		.loc 1 227 0
 366 0172 7B6D     		ldr	r3, [r7, #84]
 367 0174 032B     		cmp	r3, #3
 368 0176 19D1     		bne	.L13
 228:main.c        ****         {
 229:main.c        ****             LCD_PrintString("mTheta:");
 369              		.loc 1 229 0
 370 0178 2348     		ldr	r0, .L15+76
 371 017a FFF7FEFF 		bl	LCD_PrintString
 230:main.c        ****             printdouble(wrapAngle(getValueWithoutUpdate(&thetaShoulder))*1e3,0);
 372              		.loc 1 230 0
 373 017e 1448     		ldr	r0, .L15+20
 374 0180 FFF7FEFF 		bl	getValueWithoutUpdate
 375 0184 0346     		mov	r3, r0
 376 0186 0C46     		mov	r4, r1
 377 0188 1846     		mov	r0, r3
 378 018a 2146     		mov	r1, r4
 379 018c FFF7FEFF 		bl	wrapAngle
 380 0190 4FF00002 		mov	r2, #0
 381 0194 1D4B     		ldr	r3, .L15+80
 382 0196 FFF7FEFF 		bl	__aeabi_dmul
 383 019a 0346     		mov	r3, r0
 384 019c 0C46     		mov	r4, r1
ARM GAS  C:\Users\Albert\AppData\Local\Temp\ccg6k6kf.s 			page 12


 385 019e 0022     		movs	r2, #0
 386 01a0 1846     		mov	r0, r3
 387 01a2 2146     		mov	r1, r4
 388 01a4 FFF7FEFF 		bl	printdouble
 231:main.c        ****             i=0;
 389              		.loc 1 231 0
 390 01a8 0023     		movs	r3, #0
 391 01aa 7B65     		str	r3, [r7, #84]
 392              	.L13:
 232:main.c        ****         }
 233:main.c        ****         setTorque(u,1,1);
 393              		.loc 1 233 0
 394 01ac 0123     		movs	r3, #1
 395 01ae 0122     		movs	r2, #1
 396 01b0 D7E91601 		ldrd	r0, [r7, #88]
 397 01b4 FFF7FEFF 		bl	setTorque
 234:main.c        ****     }
 398              		.loc 1 234 0
 399 01b8 A9E7     		b	.L14
 400              	.L16:
 401 01ba 00BF     		.align	2
 402              	.L15:
 403 01bc 00000000 		.word	isr_1_ISR
 404 01c0 00000000 		.word	isr_2_ISR
 405 01c4 00000000 		.word	.LC0
 406 01c8 0C000000 		.word	.LC1
 407 01cc 18000000 		.word	.LC2
 408 01d0 00000000 		.word	thetaShoulder
 409 01d4 00000000 		.word	getShoulderAngleReading
 410 01d8 00000000 		.word	thetaWheel
 411 01dc 00000000 		.word	getMotorAngleReading
 412 01e0 00000000 		.word	torque
 413 01e4 00000000 		.word	getTorque
 414 01e8 00000000 		.word	enableMotor
 415 01ec 00000000 		.word	positiveFreeTorque
 416 01f0 00000000 		.word	negativeFreeTorque
 417 01f4 28000000 		.word	.LC3
 418 01f8 30000000 		.word	.LC4
 419 01fc 3C000000 		.word	.LC5
 420 0200 40000000 		.word	.LC6
 421 0204 00000000 		.word	iError
 422 0208 48000000 		.word	.LC7
 423 020c 00408F40 		.word	1083129856
 424              		.cfi_endproc
 425              	.LFE65:
 426              		.size	main, .-main
 427              		.text
 428              	.Letext0:
 429              		.file 2 "c:\\program files (x86)\\cypress\\psoc creator\\4.2\\psoc creator\\import\\gnu\\arm\\5.4.
 430              		.file 3 "c:\\program files (x86)\\cypress\\psoc creator\\4.2\\psoc creator\\import\\gnu\\arm\\5.4.
 431              		.file 4 "sensorStructs.h"
 432              		.file 5 "Generated_Source\\PSoC5/core_cm3.h"