ARM GAS  C:\Users\Albert\AppData\Local\Temp\cclpYoAe.s 			page 1


   1              		.syntax unified
   2              		.cpu cortex-m3
   3              		.fpu softvfp
   4              		.eabi_attribute 20, 1
   5              		.eabi_attribute 21, 1
   6              		.eabi_attribute 23, 3
   7              		.eabi_attribute 24, 1
   8              		.eabi_attribute 25, 1
   9              		.eabi_attribute 26, 1
  10              		.eabi_attribute 30, 6
  11              		.eabi_attribute 34, 1
  12              		.eabi_attribute 18, 4
  13              		.thumb
  14              		.syntax unified
  15              		.file	"Motor_A.c"
  16              		.text
  17              	.Ltext0:
  18              		.cfi_sections	.debug_frame
  19              		.section	.text.Motor_A_Write,"ax",%progbits
  20              		.align	2
  21              		.global	Motor_A_Write
  22              		.thumb
  23              		.thumb_func
  24              		.type	Motor_A_Write, %function
  25              	Motor_A_Write:
  26              	.LFB0:
  27              		.file 1 "Generated_Source\\PSoC5\\Motor_A.c"
   1:Generated_Source\PSoC5/Motor_A.c **** /*******************************************************************************
   2:Generated_Source\PSoC5/Motor_A.c **** * File Name: Motor_A.c  
   3:Generated_Source\PSoC5/Motor_A.c **** * Version 2.20
   4:Generated_Source\PSoC5/Motor_A.c **** *
   5:Generated_Source\PSoC5/Motor_A.c **** * Description:
   6:Generated_Source\PSoC5/Motor_A.c **** *  This file contains API to enable firmware control of a Pins component.
   7:Generated_Source\PSoC5/Motor_A.c **** *
   8:Generated_Source\PSoC5/Motor_A.c **** * Note:
   9:Generated_Source\PSoC5/Motor_A.c **** *
  10:Generated_Source\PSoC5/Motor_A.c **** ********************************************************************************
  11:Generated_Source\PSoC5/Motor_A.c **** * Copyright 2008-2015, Cypress Semiconductor Corporation.  All rights reserved.
  12:Generated_Source\PSoC5/Motor_A.c **** * You may use this file only in accordance with the license, terms, conditions, 
  13:Generated_Source\PSoC5/Motor_A.c **** * disclaimers, and limitations in the end user license agreement accompanying 
  14:Generated_Source\PSoC5/Motor_A.c **** * the software package with which this file was provided.
  15:Generated_Source\PSoC5/Motor_A.c **** *******************************************************************************/
  16:Generated_Source\PSoC5/Motor_A.c **** 
  17:Generated_Source\PSoC5/Motor_A.c **** #include "cytypes.h"
  18:Generated_Source\PSoC5/Motor_A.c **** #include "Motor_A.h"
  19:Generated_Source\PSoC5/Motor_A.c **** 
  20:Generated_Source\PSoC5/Motor_A.c **** /* APIs are not generated for P15[7:6] on PSoC 5 */
  21:Generated_Source\PSoC5/Motor_A.c **** #if !(CY_PSOC5A &&\
  22:Generated_Source\PSoC5/Motor_A.c **** 	 Motor_A__PORT == 15 && ((Motor_A__MASK & 0xC0) != 0))
  23:Generated_Source\PSoC5/Motor_A.c **** 
  24:Generated_Source\PSoC5/Motor_A.c **** 
  25:Generated_Source\PSoC5/Motor_A.c **** /*******************************************************************************
  26:Generated_Source\PSoC5/Motor_A.c **** * Function Name: Motor_A_Write
  27:Generated_Source\PSoC5/Motor_A.c **** ****************************************************************************//**
  28:Generated_Source\PSoC5/Motor_A.c **** *
  29:Generated_Source\PSoC5/Motor_A.c **** * \brief Writes the value to the physical port (data output register), masking
  30:Generated_Source\PSoC5/Motor_A.c **** *  and shifting the bits appropriately. 
ARM GAS  C:\Users\Albert\AppData\Local\Temp\cclpYoAe.s 			page 2


  31:Generated_Source\PSoC5/Motor_A.c **** *
  32:Generated_Source\PSoC5/Motor_A.c **** * The data output register controls the signal applied to the physical pin in 
  33:Generated_Source\PSoC5/Motor_A.c **** * conjunction with the drive mode parameter. This function avoids changing 
  34:Generated_Source\PSoC5/Motor_A.c **** * other bits in the port by using the appropriate method (read-modify-write or
  35:Generated_Source\PSoC5/Motor_A.c **** * bit banding).
  36:Generated_Source\PSoC5/Motor_A.c **** *
  37:Generated_Source\PSoC5/Motor_A.c **** * <b>Note</b> This function should not be used on a hardware digital output pin 
  38:Generated_Source\PSoC5/Motor_A.c **** * as it is driven by the hardware signal attached to it.
  39:Generated_Source\PSoC5/Motor_A.c **** *
  40:Generated_Source\PSoC5/Motor_A.c **** * \param value
  41:Generated_Source\PSoC5/Motor_A.c **** *  Value to write to the component instance.
  42:Generated_Source\PSoC5/Motor_A.c **** *
  43:Generated_Source\PSoC5/Motor_A.c **** * \return 
  44:Generated_Source\PSoC5/Motor_A.c **** *  None 
  45:Generated_Source\PSoC5/Motor_A.c **** *
  46:Generated_Source\PSoC5/Motor_A.c **** * \sideeffect
  47:Generated_Source\PSoC5/Motor_A.c **** *  If you use read-modify-write operations that are not atomic; the Interrupt 
  48:Generated_Source\PSoC5/Motor_A.c **** *  Service Routines (ISR) can cause corruption of this function. An ISR that 
  49:Generated_Source\PSoC5/Motor_A.c **** *  interrupts this function and performs writes to the Pins component data 
  50:Generated_Source\PSoC5/Motor_A.c **** *  register can cause corrupted port data. To avoid this issue, you should 
  51:Generated_Source\PSoC5/Motor_A.c **** *  either use the Per-Pin APIs (primary method) or disable interrupts around 
  52:Generated_Source\PSoC5/Motor_A.c **** *  this function.
  53:Generated_Source\PSoC5/Motor_A.c **** *
  54:Generated_Source\PSoC5/Motor_A.c **** * \funcusage
  55:Generated_Source\PSoC5/Motor_A.c **** *  \snippet Motor_A_SUT.c usage_Motor_A_Write
  56:Generated_Source\PSoC5/Motor_A.c **** *******************************************************************************/
  57:Generated_Source\PSoC5/Motor_A.c **** void Motor_A_Write(uint8 value)
  58:Generated_Source\PSoC5/Motor_A.c **** {
  28              		.loc 1 58 0
  29              		.cfi_startproc
  30              		@ args = 0, pretend = 0, frame = 16
  31              		@ frame_needed = 1, uses_anonymous_args = 0
  32              		@ link register save eliminated.
  33 0000 80B4     		push	{r7}
  34              		.cfi_def_cfa_offset 4
  35              		.cfi_offset 7, -4
  36 0002 85B0     		sub	sp, sp, #20
  37              		.cfi_def_cfa_offset 24
  38 0004 00AF     		add	r7, sp, #0
  39              		.cfi_def_cfa_register 7
  40 0006 0346     		mov	r3, r0
  41 0008 FB71     		strb	r3, [r7, #7]
  59:Generated_Source\PSoC5/Motor_A.c ****     uint8 staticBits = (Motor_A_DR & (uint8)(~Motor_A_MASK));
  42              		.loc 1 59 0
  43 000a 0B4B     		ldr	r3, .L2
  44 000c 1B78     		ldrb	r3, [r3]
  45 000e DBB2     		uxtb	r3, r3
  46 0010 23F04003 		bic	r3, r3, #64
  47 0014 FB73     		strb	r3, [r7, #15]
  60:Generated_Source\PSoC5/Motor_A.c ****     Motor_A_DR = staticBits | ((uint8)(value << Motor_A_SHIFT) & Motor_A_MASK);
  48              		.loc 1 60 0
  49 0016 0849     		ldr	r1, .L2
  50 0018 FB79     		ldrb	r3, [r7, #7]
  51 001a 9B01     		lsls	r3, r3, #6
  52 001c DBB2     		uxtb	r3, r3
  53 001e 03F04003 		and	r3, r3, #64
  54 0022 DAB2     		uxtb	r2, r3
ARM GAS  C:\Users\Albert\AppData\Local\Temp\cclpYoAe.s 			page 3


  55 0024 FB7B     		ldrb	r3, [r7, #15]
  56 0026 1343     		orrs	r3, r3, r2
  57 0028 DBB2     		uxtb	r3, r3
  58 002a 0B70     		strb	r3, [r1]
  61:Generated_Source\PSoC5/Motor_A.c **** }
  59              		.loc 1 61 0
  60 002c 00BF     		nop
  61 002e 1437     		adds	r7, r7, #20
  62              		.cfi_def_cfa_offset 4
  63 0030 BD46     		mov	sp, r7
  64              		.cfi_def_cfa_register 13
  65              		@ sp needed
  66 0032 80BC     		pop	{r7}
  67              		.cfi_restore 7
  68              		.cfi_def_cfa_offset 0
  69 0034 7047     		bx	lr
  70              	.L3:
  71 0036 00BF     		.align	2
  72              	.L2:
  73 0038 30510040 		.word	1073762608
  74              		.cfi_endproc
  75              	.LFE0:
  76              		.size	Motor_A_Write, .-Motor_A_Write
  77              		.section	.text.Motor_A_SetDriveMode,"ax",%progbits
  78              		.align	2
  79              		.global	Motor_A_SetDriveMode
  80              		.thumb
  81              		.thumb_func
  82              		.type	Motor_A_SetDriveMode, %function
  83              	Motor_A_SetDriveMode:
  84              	.LFB1:
  62:Generated_Source\PSoC5/Motor_A.c **** 
  63:Generated_Source\PSoC5/Motor_A.c **** 
  64:Generated_Source\PSoC5/Motor_A.c **** /*******************************************************************************
  65:Generated_Source\PSoC5/Motor_A.c **** * Function Name: Motor_A_SetDriveMode
  66:Generated_Source\PSoC5/Motor_A.c **** ****************************************************************************//**
  67:Generated_Source\PSoC5/Motor_A.c **** *
  68:Generated_Source\PSoC5/Motor_A.c **** * \brief Sets the drive mode for each of the Pins component's pins.
  69:Generated_Source\PSoC5/Motor_A.c **** * 
  70:Generated_Source\PSoC5/Motor_A.c **** * <b>Note</b> This affects all pins in the Pins component instance. Use the
  71:Generated_Source\PSoC5/Motor_A.c **** * Per-Pin APIs if you wish to control individual pin's drive modes.
  72:Generated_Source\PSoC5/Motor_A.c **** *
  73:Generated_Source\PSoC5/Motor_A.c **** * \param mode
  74:Generated_Source\PSoC5/Motor_A.c **** *  Mode for the selected signals. Valid options are documented in 
  75:Generated_Source\PSoC5/Motor_A.c **** *  \ref driveMode.
  76:Generated_Source\PSoC5/Motor_A.c **** *
  77:Generated_Source\PSoC5/Motor_A.c **** * \return
  78:Generated_Source\PSoC5/Motor_A.c **** *  None
  79:Generated_Source\PSoC5/Motor_A.c **** *
  80:Generated_Source\PSoC5/Motor_A.c **** * \sideeffect
  81:Generated_Source\PSoC5/Motor_A.c **** *  If you use read-modify-write operations that are not atomic, the ISR can
  82:Generated_Source\PSoC5/Motor_A.c **** *  cause corruption of this function. An ISR that interrupts this function 
  83:Generated_Source\PSoC5/Motor_A.c **** *  and performs writes to the Pins component Drive Mode registers can cause 
  84:Generated_Source\PSoC5/Motor_A.c **** *  corrupted port data. To avoid this issue, you should either use the Per-Pin
  85:Generated_Source\PSoC5/Motor_A.c **** *  APIs (primary method) or disable interrupts around this function.
  86:Generated_Source\PSoC5/Motor_A.c **** *
  87:Generated_Source\PSoC5/Motor_A.c **** * \funcusage
ARM GAS  C:\Users\Albert\AppData\Local\Temp\cclpYoAe.s 			page 4


  88:Generated_Source\PSoC5/Motor_A.c **** *  \snippet Motor_A_SUT.c usage_Motor_A_SetDriveMode
  89:Generated_Source\PSoC5/Motor_A.c **** *******************************************************************************/
  90:Generated_Source\PSoC5/Motor_A.c **** void Motor_A_SetDriveMode(uint8 mode)
  91:Generated_Source\PSoC5/Motor_A.c **** {
  85              		.loc 1 91 0
  86              		.cfi_startproc
  87              		@ args = 0, pretend = 0, frame = 8
  88              		@ frame_needed = 1, uses_anonymous_args = 0
  89              		@ link register save eliminated.
  90 0000 80B4     		push	{r7}
  91              		.cfi_def_cfa_offset 4
  92              		.cfi_offset 7, -4
  93 0002 83B0     		sub	sp, sp, #12
  94              		.cfi_def_cfa_offset 16
  95 0004 00AF     		add	r7, sp, #0
  96              		.cfi_def_cfa_register 7
  97 0006 0346     		mov	r3, r0
  98 0008 FB71     		strb	r3, [r7, #7]
  92:Generated_Source\PSoC5/Motor_A.c **** 	CyPins_SetPinDriveMode(Motor_A_0, mode);
  99              		.loc 1 92 0
 100 000a 0B49     		ldr	r1, .L5
 101 000c 0A4B     		ldr	r3, .L5
 102 000e 1B78     		ldrb	r3, [r3]
 103 0010 DBB2     		uxtb	r3, r3
 104 0012 5BB2     		sxtb	r3, r3
 105 0014 23F00E03 		bic	r3, r3, #14
 106 0018 5AB2     		sxtb	r2, r3
 107 001a 97F90730 		ldrsb	r3, [r7, #7]
 108 001e 03F00E03 		and	r3, r3, #14
 109 0022 5BB2     		sxtb	r3, r3
 110 0024 1343     		orrs	r3, r3, r2
 111 0026 5BB2     		sxtb	r3, r3
 112 0028 DBB2     		uxtb	r3, r3
 113 002a 0B70     		strb	r3, [r1]
  93:Generated_Source\PSoC5/Motor_A.c **** }
 114              		.loc 1 93 0
 115 002c 00BF     		nop
 116 002e 0C37     		adds	r7, r7, #12
 117              		.cfi_def_cfa_offset 4
 118 0030 BD46     		mov	sp, r7
 119              		.cfi_def_cfa_register 13
 120              		@ sp needed
 121 0032 80BC     		pop	{r7}
 122              		.cfi_restore 7
 123              		.cfi_def_cfa_offset 0
 124 0034 7047     		bx	lr
 125              	.L6:
 126 0036 00BF     		.align	2
 127              	.L5:
 128 0038 1E500040 		.word	1073762334
 129              		.cfi_endproc
 130              	.LFE1:
 131              		.size	Motor_A_SetDriveMode, .-Motor_A_SetDriveMode
 132              		.section	.text.Motor_A_Read,"ax",%progbits
 133              		.align	2
 134              		.global	Motor_A_Read
 135              		.thumb
ARM GAS  C:\Users\Albert\AppData\Local\Temp\cclpYoAe.s 			page 5


 136              		.thumb_func
 137              		.type	Motor_A_Read, %function
 138              	Motor_A_Read:
 139              	.LFB2:
  94:Generated_Source\PSoC5/Motor_A.c **** 
  95:Generated_Source\PSoC5/Motor_A.c **** 
  96:Generated_Source\PSoC5/Motor_A.c **** /*******************************************************************************
  97:Generated_Source\PSoC5/Motor_A.c **** * Function Name: Motor_A_Read
  98:Generated_Source\PSoC5/Motor_A.c **** ****************************************************************************//**
  99:Generated_Source\PSoC5/Motor_A.c **** *
 100:Generated_Source\PSoC5/Motor_A.c **** * \brief Reads the associated physical port (pin status register) and masks 
 101:Generated_Source\PSoC5/Motor_A.c **** *  the required bits according to the width and bit position of the component
 102:Generated_Source\PSoC5/Motor_A.c **** *  instance. 
 103:Generated_Source\PSoC5/Motor_A.c **** *
 104:Generated_Source\PSoC5/Motor_A.c **** * The pin's status register returns the current logic level present on the 
 105:Generated_Source\PSoC5/Motor_A.c **** * physical pin.
 106:Generated_Source\PSoC5/Motor_A.c **** *
 107:Generated_Source\PSoC5/Motor_A.c **** * \return 
 108:Generated_Source\PSoC5/Motor_A.c **** *  The current value for the pins in the component as a right justified number.
 109:Generated_Source\PSoC5/Motor_A.c **** *
 110:Generated_Source\PSoC5/Motor_A.c **** * \funcusage
 111:Generated_Source\PSoC5/Motor_A.c **** *  \snippet Motor_A_SUT.c usage_Motor_A_Read  
 112:Generated_Source\PSoC5/Motor_A.c **** *******************************************************************************/
 113:Generated_Source\PSoC5/Motor_A.c **** uint8 Motor_A_Read(void)
 114:Generated_Source\PSoC5/Motor_A.c **** {
 140              		.loc 1 114 0
 141              		.cfi_startproc
 142              		@ args = 0, pretend = 0, frame = 0
 143              		@ frame_needed = 1, uses_anonymous_args = 0
 144              		@ link register save eliminated.
 145 0000 80B4     		push	{r7}
 146              		.cfi_def_cfa_offset 4
 147              		.cfi_offset 7, -4
 148 0002 00AF     		add	r7, sp, #0
 149              		.cfi_def_cfa_register 7
 115:Generated_Source\PSoC5/Motor_A.c ****     return (Motor_A_PS & Motor_A_MASK) >> Motor_A_SHIFT;
 150              		.loc 1 115 0
 151 0004 054B     		ldr	r3, .L9
 152 0006 1B78     		ldrb	r3, [r3]
 153 0008 DBB2     		uxtb	r3, r3
 154 000a 03F04003 		and	r3, r3, #64
 155 000e 9B09     		lsrs	r3, r3, #6
 156 0010 DBB2     		uxtb	r3, r3
 116:Generated_Source\PSoC5/Motor_A.c **** }
 157              		.loc 1 116 0
 158 0012 1846     		mov	r0, r3
 159 0014 BD46     		mov	sp, r7
 160              		.cfi_def_cfa_register 13
 161              		@ sp needed
 162 0016 80BC     		pop	{r7}
 163              		.cfi_restore 7
 164              		.cfi_def_cfa_offset 0
 165 0018 7047     		bx	lr
 166              	.L10:
 167 001a 00BF     		.align	2
 168              	.L9:
 169 001c 31510040 		.word	1073762609
ARM GAS  C:\Users\Albert\AppData\Local\Temp\cclpYoAe.s 			page 6


 170              		.cfi_endproc
 171              	.LFE2:
 172              		.size	Motor_A_Read, .-Motor_A_Read
 173              		.section	.text.Motor_A_ReadDataReg,"ax",%progbits
 174              		.align	2
 175              		.global	Motor_A_ReadDataReg
 176              		.thumb
 177              		.thumb_func
 178              		.type	Motor_A_ReadDataReg, %function
 179              	Motor_A_ReadDataReg:
 180              	.LFB3:
 117:Generated_Source\PSoC5/Motor_A.c **** 
 118:Generated_Source\PSoC5/Motor_A.c **** 
 119:Generated_Source\PSoC5/Motor_A.c **** /*******************************************************************************
 120:Generated_Source\PSoC5/Motor_A.c **** * Function Name: Motor_A_ReadDataReg
 121:Generated_Source\PSoC5/Motor_A.c **** ****************************************************************************//**
 122:Generated_Source\PSoC5/Motor_A.c **** *
 123:Generated_Source\PSoC5/Motor_A.c **** * \brief Reads the associated physical port's data output register and masks 
 124:Generated_Source\PSoC5/Motor_A.c **** *  the correct bits according to the width and bit position of the component 
 125:Generated_Source\PSoC5/Motor_A.c **** *  instance. 
 126:Generated_Source\PSoC5/Motor_A.c **** *
 127:Generated_Source\PSoC5/Motor_A.c **** * The data output register controls the signal applied to the physical pin in 
 128:Generated_Source\PSoC5/Motor_A.c **** * conjunction with the drive mode parameter. This is not the same as the 
 129:Generated_Source\PSoC5/Motor_A.c **** * preferred Motor_A_Read() API because the 
 130:Generated_Source\PSoC5/Motor_A.c **** * Motor_A_ReadDataReg() reads the data register instead of the status 
 131:Generated_Source\PSoC5/Motor_A.c **** * register. For output pins this is a useful function to determine the value 
 132:Generated_Source\PSoC5/Motor_A.c **** * just written to the pin.
 133:Generated_Source\PSoC5/Motor_A.c **** *
 134:Generated_Source\PSoC5/Motor_A.c **** * \return 
 135:Generated_Source\PSoC5/Motor_A.c **** *  The current value of the data register masked and shifted into a right 
 136:Generated_Source\PSoC5/Motor_A.c **** *  justified number for the component instance.
 137:Generated_Source\PSoC5/Motor_A.c **** *
 138:Generated_Source\PSoC5/Motor_A.c **** * \funcusage
 139:Generated_Source\PSoC5/Motor_A.c **** *  \snippet Motor_A_SUT.c usage_Motor_A_ReadDataReg 
 140:Generated_Source\PSoC5/Motor_A.c **** *******************************************************************************/
 141:Generated_Source\PSoC5/Motor_A.c **** uint8 Motor_A_ReadDataReg(void)
 142:Generated_Source\PSoC5/Motor_A.c **** {
 181              		.loc 1 142 0
 182              		.cfi_startproc
 183              		@ args = 0, pretend = 0, frame = 0
 184              		@ frame_needed = 1, uses_anonymous_args = 0
 185              		@ link register save eliminated.
 186 0000 80B4     		push	{r7}
 187              		.cfi_def_cfa_offset 4
 188              		.cfi_offset 7, -4
 189 0002 00AF     		add	r7, sp, #0
 190              		.cfi_def_cfa_register 7
 143:Generated_Source\PSoC5/Motor_A.c ****     return (Motor_A_DR & Motor_A_MASK) >> Motor_A_SHIFT;
 191              		.loc 1 143 0
 192 0004 054B     		ldr	r3, .L13
 193 0006 1B78     		ldrb	r3, [r3]
 194 0008 DBB2     		uxtb	r3, r3
 195 000a 03F04003 		and	r3, r3, #64
 196 000e 9B09     		lsrs	r3, r3, #6
 197 0010 DBB2     		uxtb	r3, r3
 144:Generated_Source\PSoC5/Motor_A.c **** }
 198              		.loc 1 144 0
ARM GAS  C:\Users\Albert\AppData\Local\Temp\cclpYoAe.s 			page 7


 199 0012 1846     		mov	r0, r3
 200 0014 BD46     		mov	sp, r7
 201              		.cfi_def_cfa_register 13
 202              		@ sp needed
 203 0016 80BC     		pop	{r7}
 204              		.cfi_restore 7
 205              		.cfi_def_cfa_offset 0
 206 0018 7047     		bx	lr
 207              	.L14:
 208 001a 00BF     		.align	2
 209              	.L13:
 210 001c 30510040 		.word	1073762608
 211              		.cfi_endproc
 212              	.LFE3:
 213              		.size	Motor_A_ReadDataReg, .-Motor_A_ReadDataReg
 214              		.text
 215              	.Letext0:
 216              		.file 2 "Generated_Source\\PSoC5\\cytypes.h"