ARM GAS  C:\Users\Albert\AppData\Local\Temp\ccChvSqj.s 			page 1


   1              		.syntax unified
   2              		.cpu cortex-m3
   3              		.fpu softvfp
   4              		.eabi_attribute 20, 1
   5              		.eabi_attribute 21, 1
   6              		.eabi_attribute 23, 3
   7              		.eabi_attribute 24, 1
   8              		.eabi_attribute 25, 1
   9              		.eabi_attribute 26, 1
  10              		.eabi_attribute 30, 6
  11              		.eabi_attribute 34, 1
  12              		.eabi_attribute 18, 4
  13              		.thumb
  14              		.syntax unified
  15              		.file	"quadDecUtil.c"
  16              		.text
  17              	.Ltext0:
  18              		.cfi_sections	.debug_frame
  19              		.section	.text.initQuadDec,"ax",%progbits
  20              		.align	2
  21              		.global	initQuadDec
  22              		.thumb
  23              		.thumb_func
  24              		.type	initQuadDec, %function
  25              	initQuadDec:
  26              	.LFB63:
  27              		.file 1 "quadDecUtil.c"
   1:quadDecUtil.c **** /* ========================================
   2:quadDecUtil.c ****  *
   3:quadDecUtil.c ****  * Copyright Albert Wu, 2018
   4:quadDecUtil.c ****  * All Rights Reserved
   5:quadDecUtil.c ****  * UNPUBLISHED, LICENSED SOFTWARE.
   6:quadDecUtil.c ****  *
   7:quadDecUtil.c ****  * CONFIDENTIAL AND PROPRIETARY INFORMATION
   8:quadDecUtil.c ****  * WHICH IS THE PROPERTY OF your company.
   9:quadDecUtil.c ****  *
  10:quadDecUtil.c ****  * ========================================
  11:quadDecUtil.c **** */
  12:quadDecUtil.c **** #include "quadDecUtil.h"
  13:quadDecUtil.c **** 
  14:quadDecUtil.c **** void initQuadDec()
  15:quadDecUtil.c **** {
  28              		.loc 1 15 0
  29              		.cfi_startproc
  30              		@ args = 0, pretend = 0, frame = 0
  31              		@ frame_needed = 1, uses_anonymous_args = 0
  32 0000 80B5     		push	{r7, lr}
  33              		.cfi_def_cfa_offset 8
  34              		.cfi_offset 7, -8
  35              		.cfi_offset 14, -4
  36 0002 00AF     		add	r7, sp, #0
  37              		.cfi_def_cfa_register 7
  16:quadDecUtil.c ****     QuadDec_Motor_Start();
  38              		.loc 1 16 0
  39 0004 FFF7FEFF 		bl	QuadDec_Motor_Start
  17:quadDecUtil.c ****     QuadDec_Shoulder_Start();
  40              		.loc 1 17 0
ARM GAS  C:\Users\Albert\AppData\Local\Temp\ccChvSqj.s 			page 2


  41 0008 FFF7FEFF 		bl	QuadDec_Shoulder_Start
  18:quadDecUtil.c ****     
  19:quadDecUtil.c ****     //Zero the decoders
  20:quadDecUtil.c ****     QuadDec_Motor_SetCounter(0);
  42              		.loc 1 20 0
  43 000c 0020     		movs	r0, #0
  44 000e FFF7FEFF 		bl	QuadDec_Motor_SetCounter
  21:quadDecUtil.c ****     QuadDec_Shoulder_SetCounter(0);
  45              		.loc 1 21 0
  46 0012 0020     		movs	r0, #0
  47 0014 FFF7FEFF 		bl	QuadDec_Shoulder_SetCounter
  22:quadDecUtil.c **** }
  48              		.loc 1 22 0
  49 0018 00BF     		nop
  50 001a 80BD     		pop	{r7, pc}
  51              		.cfi_endproc
  52              	.LFE63:
  53              		.size	initQuadDec, .-initQuadDec
  54              		.section	.text.getMotorDecReading,"ax",%progbits
  55              		.align	2
  56              		.global	getMotorDecReading
  57              		.thumb
  58              		.thumb_func
  59              		.type	getMotorDecReading, %function
  60              	getMotorDecReading:
  61              	.LFB64:
  23:quadDecUtil.c **** 
  24:quadDecUtil.c **** int16 getMotorDecReading()
  25:quadDecUtil.c **** {
  62              		.loc 1 25 0
  63              		.cfi_startproc
  64              		@ args = 0, pretend = 0, frame = 0
  65              		@ frame_needed = 1, uses_anonymous_args = 0
  66 0000 80B5     		push	{r7, lr}
  67              		.cfi_def_cfa_offset 8
  68              		.cfi_offset 7, -8
  69              		.cfi_offset 14, -4
  70 0002 00AF     		add	r7, sp, #0
  71              		.cfi_def_cfa_register 7
  26:quadDecUtil.c ****     return QuadDec_Motor_GetCounter();
  72              		.loc 1 26 0
  73 0004 FFF7FEFF 		bl	QuadDec_Motor_GetCounter
  74 0008 0346     		mov	r3, r0
  75 000a 1BB2     		sxth	r3, r3
  27:quadDecUtil.c **** }
  76              		.loc 1 27 0
  77 000c 1846     		mov	r0, r3
  78 000e 80BD     		pop	{r7, pc}
  79              		.cfi_endproc
  80              	.LFE64:
  81              		.size	getMotorDecReading, .-getMotorDecReading
  82              		.section	.text.getShoulderDecReading,"ax",%progbits
  83              		.align	2
  84              		.global	getShoulderDecReading
  85              		.thumb
  86              		.thumb_func
  87              		.type	getShoulderDecReading, %function
ARM GAS  C:\Users\Albert\AppData\Local\Temp\ccChvSqj.s 			page 3


  88              	getShoulderDecReading:
  89              	.LFB65:
  28:quadDecUtil.c **** int16 getShoulderDecReading()
  29:quadDecUtil.c **** {
  90              		.loc 1 29 0
  91              		.cfi_startproc
  92              		@ args = 0, pretend = 0, frame = 0
  93              		@ frame_needed = 1, uses_anonymous_args = 0
  94 0000 80B5     		push	{r7, lr}
  95              		.cfi_def_cfa_offset 8
  96              		.cfi_offset 7, -8
  97              		.cfi_offset 14, -4
  98 0002 00AF     		add	r7, sp, #0
  99              		.cfi_def_cfa_register 7
  30:quadDecUtil.c ****     return QuadDec_Shoulder_GetCounter();
 100              		.loc 1 30 0
 101 0004 FFF7FEFF 		bl	QuadDec_Shoulder_GetCounter
 102 0008 0346     		mov	r3, r0
  31:quadDecUtil.c **** }
 103              		.loc 1 31 0
 104 000a 1846     		mov	r0, r3
 105 000c 80BD     		pop	{r7, pc}
 106              		.cfi_endproc
 107              	.LFE65:
 108              		.size	getShoulderDecReading, .-getShoulderDecReading
 109 000e 00BF     		.text
 110              	.Letext0:
 111              		.file 2 "c:\\program files (x86)\\cypress\\psoc creator\\4.2\\psoc creator\\import\\gnu\\arm\\5.4.
 112              		.file 3 "c:\\program files (x86)\\cypress\\psoc creator\\4.2\\psoc creator\\import\\gnu\\arm\\5.4.
 113              		.file 4 "Generated_Source\\PSoC5/cytypes.h"
 114              		.file 5 "Generated_Source\\PSoC5/core_cm3.h"