ARM GAS  C:\Users\Albert\AppData\Local\Temp\cchQhzXM.s 			page 1


   1              		.syntax unified
   2              		.cpu cortex-m3
   3              		.fpu softvfp
   4              		.eabi_attribute 20, 1
   5              		.eabi_attribute 21, 1
   6              		.eabi_attribute 23, 3
   7              		.eabi_attribute 24, 1
   8              		.eabi_attribute 25, 1
   9              		.eabi_attribute 26, 1
  10              		.eabi_attribute 30, 6
  11              		.eabi_attribute 34, 1
  12              		.eabi_attribute 18, 4
  13              		.thumb
  14              		.syntax unified
  15              		.file	"quadDec.c"
  16              		.text
  17              	.Ltext0:
  18              		.cfi_sections	.debug_frame
  19              		.section	.text.initQuadDec,"ax",%progbits
  20              		.align	2
  21              		.global	initQuadDec
  22              		.thumb
  23              		.thumb_func
  24              		.type	initQuadDec, %function
  25              	initQuadDec:
  26              	.LFB63:
  27              		.file 1 "quadDec.c"
   1:quadDec.c     **** /* ========================================
   2:quadDec.c     ****  *
   3:quadDec.c     ****  * Copyright Albert Wu, 2018
   4:quadDec.c     ****  * All Rights Reserved
   5:quadDec.c     ****  * UNPUBLISHED, LICENSED SOFTWARE.
   6:quadDec.c     ****  *
   7:quadDec.c     ****  * CONFIDENTIAL AND PROPRIETARY INFORMATION
   8:quadDec.c     ****  * WHICH IS THE PROPERTY OF your company.
   9:quadDec.c     ****  *
  10:quadDec.c     ****  * ========================================
  11:quadDec.c     **** */
  12:quadDec.c     **** #include "quadDec.h"
  13:quadDec.c     **** #include <math.h>
  14:quadDec.c     **** #include "mathUtility.h"
  15:quadDec.c     **** #include "hardwareParameters.h"
  16:quadDec.c     **** 
  17:quadDec.c     **** void initQuadDec()
  18:quadDec.c     **** {
  28              		.loc 1 18 0
  29              		.cfi_startproc
  30              		@ args = 0, pretend = 0, frame = 0
  31              		@ frame_needed = 1, uses_anonymous_args = 0
  32 0000 80B5     		push	{r7, lr}
  33              		.cfi_def_cfa_offset 8
  34              		.cfi_offset 7, -8
  35              		.cfi_offset 14, -4
  36 0002 00AF     		add	r7, sp, #0
  37              		.cfi_def_cfa_register 7
  19:quadDec.c     ****     Clock_Enc_Motor_Start();                //starts clock
  38              		.loc 1 19 0
ARM GAS  C:\Users\Albert\AppData\Local\Temp\cchQhzXM.s 			page 2


  39 0004 FFF7FEFF 		bl	Clock_Enc_Motor_Start
  20:quadDec.c     ****     Clock_Enc_Shoulder_Start();                //starts clock
  40              		.loc 1 20 0
  41 0008 FFF7FEFF 		bl	Clock_Enc_Shoulder_Start
  21:quadDec.c     ****     QuadDec_Motor_Start();
  42              		.loc 1 21 0
  43 000c FFF7FEFF 		bl	QuadDec_Motor_Start
  22:quadDec.c     ****     QuadDec_Shoulder_Start();
  44              		.loc 1 22 0
  45 0010 FFF7FEFF 		bl	QuadDec_Shoulder_Start
  23:quadDec.c     ****     
  24:quadDec.c     ****     //Zero the decoders
  25:quadDec.c     ****     QuadDec_Motor_SetCounter(16384u);
  46              		.loc 1 25 0
  47 0014 4FF48040 		mov	r0, #16384
  48 0018 FFF7FEFF 		bl	QuadDec_Motor_SetCounter
  26:quadDec.c     ****     QuadDec_Shoulder_SetCounter(16384u);
  49              		.loc 1 26 0
  50 001c 4FF48040 		mov	r0, #16384
  51 0020 FFF7FEFF 		bl	QuadDec_Shoulder_SetCounter
  27:quadDec.c     **** }
  52              		.loc 1 27 0
  53 0024 00BF     		nop
  54 0026 80BD     		pop	{r7, pc}
  55              		.cfi_endproc
  56              	.LFE63:
  57              		.size	initQuadDec, .-initQuadDec
  58              		.section	.text.getMotorDecReading,"ax",%progbits
  59              		.align	2
  60              		.global	getMotorDecReading
  61              		.thumb
  62              		.thumb_func
  63              		.type	getMotorDecReading, %function
  64              	getMotorDecReading:
  65              	.LFB64:
  28:quadDec.c     **** 
  29:quadDec.c     **** int16 getMotorDecReading()
  30:quadDec.c     **** {
  66              		.loc 1 30 0
  67              		.cfi_startproc
  68              		@ args = 0, pretend = 0, frame = 0
  69              		@ frame_needed = 1, uses_anonymous_args = 0
  70 0000 80B5     		push	{r7, lr}
  71              		.cfi_def_cfa_offset 8
  72              		.cfi_offset 7, -8
  73              		.cfi_offset 14, -4
  74 0002 00AF     		add	r7, sp, #0
  75              		.cfi_def_cfa_register 7
  31:quadDec.c     ****     return QuadDec_Motor_GetCounter();
  76              		.loc 1 31 0
  77 0004 FFF7FEFF 		bl	QuadDec_Motor_GetCounter
  78 0008 0346     		mov	r3, r0
  79 000a 1BB2     		sxth	r3, r3
  32:quadDec.c     **** }
  80              		.loc 1 32 0
  81 000c 1846     		mov	r0, r3
  82 000e 80BD     		pop	{r7, pc}
ARM GAS  C:\Users\Albert\AppData\Local\Temp\cchQhzXM.s 			page 3


  83              		.cfi_endproc
  84              	.LFE64:
  85              		.size	getMotorDecReading, .-getMotorDecReading
  86              		.section	.text.getShoulderDecReading,"ax",%progbits
  87              		.align	2
  88              		.global	getShoulderDecReading
  89              		.thumb
  90              		.thumb_func
  91              		.type	getShoulderDecReading, %function
  92              	getShoulderDecReading:
  93              	.LFB65:
  33:quadDec.c     **** int16 getShoulderDecReading()
  34:quadDec.c     **** {
  94              		.loc 1 34 0
  95              		.cfi_startproc
  96              		@ args = 0, pretend = 0, frame = 0
  97              		@ frame_needed = 1, uses_anonymous_args = 0
  98 0000 80B5     		push	{r7, lr}
  99              		.cfi_def_cfa_offset 8
 100              		.cfi_offset 7, -8
 101              		.cfi_offset 14, -4
 102 0002 00AF     		add	r7, sp, #0
 103              		.cfi_def_cfa_register 7
  35:quadDec.c     ****     return QuadDec_Shoulder_GetCounter();
 104              		.loc 1 35 0
 105 0004 FFF7FEFF 		bl	QuadDec_Shoulder_GetCounter
 106 0008 0346     		mov	r3, r0
 107 000a 1BB2     		sxth	r3, r3
  36:quadDec.c     **** }
 108              		.loc 1 36 0
 109 000c 1846     		mov	r0, r3
 110 000e 80BD     		pop	{r7, pc}
 111              		.cfi_endproc
 112              	.LFE65:
 113              		.size	getShoulderDecReading, .-getShoulderDecReading
 114              		.global	__aeabi_i2d
 115              		.global	__aeabi_dmul
 116              		.global	__aeabi_ddiv
 117              		.section	.text.getMotorAngleReading,"ax",%progbits
 118              		.align	2
 119              		.global	getMotorAngleReading
 120              		.thumb
 121              		.thumb_func
 122              		.type	getMotorAngleReading, %function
 123              	getMotorAngleReading:
 124              	.LFB66:
  37:quadDec.c     **** double getMotorAngleReading()
  38:quadDec.c     **** {
 125              		.loc 1 38 0
 126              		.cfi_startproc
 127              		@ args = 0, pretend = 0, frame = 0
 128              		@ frame_needed = 1, uses_anonymous_args = 0
 129 0000 98B5     		push	{r3, r4, r7, lr}
 130              		.cfi_def_cfa_offset 16
 131              		.cfi_offset 3, -16
 132              		.cfi_offset 4, -12
 133              		.cfi_offset 7, -8
ARM GAS  C:\Users\Albert\AppData\Local\Temp\cchQhzXM.s 			page 4


 134              		.cfi_offset 14, -4
 135 0002 00AF     		add	r7, sp, #0
 136              		.cfi_def_cfa_register 7
  39:quadDec.c     ****     return (getMotorDecReading()*MOTOR_DEC_RES);
 137              		.loc 1 39 0
 138 0004 FFF7FEFF 		bl	getMotorDecReading
 139 0008 0346     		mov	r3, r0
 140 000a 5B00     		lsls	r3, r3, #1
 141 000c 1846     		mov	r0, r3
 142 000e FFF7FEFF 		bl	__aeabi_i2d
 143 0012 09A3     		adr	r3, .L8
 144 0014 D3E90023 		ldrd	r2, [r3]
 145 0018 FFF7FEFF 		bl	__aeabi_dmul
 146 001c 0346     		mov	r3, r0
 147 001e 0C46     		mov	r4, r1
 148 0020 1846     		mov	r0, r3
 149 0022 2146     		mov	r1, r4
 150 0024 4FF00002 		mov	r2, #0
 151 0028 054B     		ldr	r3, .L8+8
 152 002a FFF7FEFF 		bl	__aeabi_ddiv
 153 002e 0346     		mov	r3, r0
 154 0030 0C46     		mov	r4, r1
  40:quadDec.c     **** }
 155              		.loc 1 40 0
 156 0032 1846     		mov	r0, r3
 157 0034 2146     		mov	r1, r4
 158 0036 98BD     		pop	{r3, r4, r7, pc}
 159              	.L9:
 160              		.align	3
 161              	.L8:
 162 0038 182D4454 		.word	1413754136
 163 003c FB210940 		.word	1074340347
 164 0040 00005040 		.word	1078984704
 165              		.cfi_endproc
 166              	.LFE66:
 167              		.size	getMotorAngleReading, .-getMotorAngleReading
 168              		.section	.text.getShoulderAngleReading,"ax",%progbits
 169              		.align	2
 170              		.global	getShoulderAngleReading
 171              		.thumb
 172              		.thumb_func
 173              		.type	getShoulderAngleReading, %function
 174              	getShoulderAngleReading:
 175              	.LFB67:
  41:quadDec.c     **** double getShoulderAngleReading()
  42:quadDec.c     **** {   
 176              		.loc 1 42 0
 177              		.cfi_startproc
 178              		@ args = 0, pretend = 0, frame = 0
 179              		@ frame_needed = 1, uses_anonymous_args = 0
 180 0000 98B5     		push	{r3, r4, r7, lr}
 181              		.cfi_def_cfa_offset 16
 182              		.cfi_offset 3, -16
 183              		.cfi_offset 4, -12
 184              		.cfi_offset 7, -8
 185              		.cfi_offset 14, -4
 186 0002 00AF     		add	r7, sp, #0
ARM GAS  C:\Users\Albert\AppData\Local\Temp\cchQhzXM.s 			page 5


 187              		.cfi_def_cfa_register 7
  43:quadDec.c     ****     return (getShoulderDecReading()*SHOULDER_DEC_RES);
 188              		.loc 1 43 0
 189 0004 FFF7FEFF 		bl	getShoulderDecReading
 190 0008 0346     		mov	r3, r0
 191 000a 5B00     		lsls	r3, r3, #1
 192 000c 1846     		mov	r0, r3
 193 000e FFF7FEFF 		bl	__aeabi_i2d
 194 0012 09A3     		adr	r3, .L12
 195 0014 D3E90023 		ldrd	r2, [r3]
 196 0018 FFF7FEFF 		bl	__aeabi_dmul
 197 001c 0346     		mov	r3, r0
 198 001e 0C46     		mov	r4, r1
 199 0020 1846     		mov	r0, r3
 200 0022 2146     		mov	r1, r4
 201 0024 06A3     		adr	r3, .L12+8
 202 0026 D3E90023 		ldrd	r2, [r3]
 203 002a FFF7FEFF 		bl	__aeabi_ddiv
 204 002e 0346     		mov	r3, r0
 205 0030 0C46     		mov	r4, r1
  44:quadDec.c     **** }
 206              		.loc 1 44 0
 207 0032 1846     		mov	r0, r3
 208 0034 2146     		mov	r1, r4
 209 0036 98BD     		pop	{r3, r4, r7, pc}
 210              	.L13:
 211              		.align	3
 212              	.L12:
 213 0038 182D4454 		.word	1413754136
 214 003c FB210940 		.word	1074340347
 215 0040 00000000 		.word	0
 216 0044 00A49F40 		.word	1084204032
 217              		.cfi_endproc
 218              	.LFE67:
 219              		.size	getShoulderAngleReading, .-getShoulderAngleReading
 220              		.text
 221              	.Letext0:
 222              		.file 2 "c:\\program files (x86)\\cypress\\psoc creator\\4.2\\psoc creator\\import\\gnu\\arm\\5.4.
 223              		.file 3 "c:\\program files (x86)\\cypress\\psoc creator\\4.2\\psoc creator\\import\\gnu\\arm\\5.4.
 224              		.file 4 "Generated_Source\\PSoC5/cytypes.h"
 225              		.file 5 "Generated_Source\\PSoC5/core_cm3.h"