ARM GAS  C:\Users\Albert\AppData\Local\Temp\ccMEz8U0.s 			page 1


   1              		.syntax unified
   2              		.cpu cortex-m3
   3              		.fpu softvfp
   4              		.eabi_attribute 20, 1
   5              		.eabi_attribute 21, 1
   6              		.eabi_attribute 23, 3
   7              		.eabi_attribute 24, 1
   8              		.eabi_attribute 25, 1
   9              		.eabi_attribute 26, 1
  10              		.eabi_attribute 30, 6
  11              		.eabi_attribute 34, 1
  12              		.eabi_attribute 18, 4
  13              		.thumb
  14              		.syntax unified
  15              		.file	"sensorStructs.c"
  16              		.text
  17              	.Ltext0:
  18              		.cfi_sections	.debug_frame
  19              		.global	__aeabi_dadd
  20              		.global	__aeabi_ddiv
  21              		.section	.text.initToZero,"ax",%progbits
  22              		.align	2
  23              		.global	initToZero
  24              		.thumb
  25              		.thumb_func
  26              		.type	initToZero, %function
  27              	initToZero:
  28              	.LFB63:
  29              		.file 1 "sensorStructs.c"
   1:sensorStructs.c **** /* ========================================
   2:sensorStructs.c ****  *
   3:sensorStructs.c ****  * Copyright Albert Wu, 2018
   4:sensorStructs.c ****  * All Rights Reserved
   5:sensorStructs.c ****  * UNPUBLISHED, LICENSED SOFTWARE.
   6:sensorStructs.c ****  *
   7:sensorStructs.c ****  * CONFIDENTIAL AND PROPRIETARY INFORMATION
   8:sensorStructs.c ****  * WHICH IS THE PROPERTY OF your company.
   9:sensorStructs.c ****  *
  10:sensorStructs.c ****  * ========================================
  11:sensorStructs.c **** */
  12:sensorStructs.c **** #include <project.h>
  13:sensorStructs.c **** #include <device.h>
  14:sensorStructs.c **** #include "mathUtility.h"
  15:sensorStructs.c **** #include "sensorStructs.h"
  16:sensorStructs.c **** 
  17:sensorStructs.c **** //helper functions
  18:sensorStructs.c **** double getavg(MemoryVariable *x);
  19:sensorStructs.c **** double getder(MemoryVariable *x);
  20:sensorStructs.c **** void updateMemoryVariable(MemoryVariable *x);
  21:sensorStructs.c **** 
  22:sensorStructs.c **** void initToZero(MemoryVariable *x)
  23:sensorStructs.c **** {
  30              		.loc 1 23 0
  31              		.cfi_startproc
  32              		@ args = 0, pretend = 0, frame = 24
  33              		@ frame_needed = 1, uses_anonymous_args = 0
  34 0000 90B5     		push	{r4, r7, lr}
ARM GAS  C:\Users\Albert\AppData\Local\Temp\ccMEz8U0.s 			page 2


  35              		.cfi_def_cfa_offset 12
  36              		.cfi_offset 4, -12
  37              		.cfi_offset 7, -8
  38              		.cfi_offset 14, -4
  39 0002 87B0     		sub	sp, sp, #28
  40              		.cfi_def_cfa_offset 40
  41 0004 00AF     		add	r7, sp, #0
  42              		.cfi_def_cfa_register 7
  43 0006 7860     		str	r0, [r7, #4]
  24:sensorStructs.c ****     //samples initial values
  25:sensorStructs.c ****     double readings = 0;
  44              		.loc 1 25 0
  45 0008 4FF00003 		mov	r3, #0
  46 000c 4FF00004 		mov	r4, #0
  47 0010 C7E90434 		strd	r3, [r7, #16]
  48              	.LBB2:
  26:sensorStructs.c ****     for(int i = 0; i < INIT_SAMPLES; i++)
  49              		.loc 1 26 0
  50 0014 0023     		movs	r3, #0
  51 0016 FB60     		str	r3, [r7, #12]
  52 0018 14E0     		b	.L2
  53              	.L3:
  27:sensorStructs.c ****     {
  28:sensorStructs.c ****         readings += x->valueGetter();
  54              		.loc 1 28 0 discriminator 3
  55 001a 7B68     		ldr	r3, [r7, #4]
  56 001c 9B6C     		ldr	r3, [r3, #72]
  57 001e 9847     		blx	r3
  58 0020 0346     		mov	r3, r0
  59 0022 0C46     		mov	r4, r1
  60 0024 1A46     		mov	r2, r3
  61 0026 2346     		mov	r3, r4
  62 0028 D7E90401 		ldrd	r0, [r7, #16]
  63 002c FFF7FEFF 		bl	__aeabi_dadd
  64 0030 0346     		mov	r3, r0
  65 0032 0C46     		mov	r4, r1
  66 0034 C7E90434 		strd	r3, [r7, #16]
  29:sensorStructs.c ****         CyDelay(INIT_SAMPLE_PERIOD);
  67              		.loc 1 29 0 discriminator 3
  68 0038 0120     		movs	r0, #1
  69 003a FFF7FEFF 		bl	CyDelay
  26:sensorStructs.c ****     for(int i = 0; i < INIT_SAMPLES; i++)
  70              		.loc 1 26 0 discriminator 3
  71 003e FB68     		ldr	r3, [r7, #12]
  72 0040 0133     		adds	r3, r3, #1
  73 0042 FB60     		str	r3, [r7, #12]
  74              	.L2:
  26:sensorStructs.c ****     for(int i = 0; i < INIT_SAMPLES; i++)
  75              		.loc 1 26 0 is_stmt 0 discriminator 1
  76 0044 FB68     		ldr	r3, [r7, #12]
  77 0046 0E2B     		cmp	r3, #14
  78 0048 E7DD     		ble	.L3
  79              	.LBE2:
  30:sensorStructs.c ****     }
  31:sensorStructs.c ****     x->offset=readings/INIT_SAMPLES;
  80              		.loc 1 31 0 is_stmt 1
  81 004a 4FF00002 		mov	r2, #0
ARM GAS  C:\Users\Albert\AppData\Local\Temp\ccMEz8U0.s 			page 3


  82 004e 084B     		ldr	r3, .L4
  83 0050 D7E90401 		ldrd	r0, [r7, #16]
  84 0054 FFF7FEFF 		bl	__aeabi_ddiv
  85 0058 0346     		mov	r3, r0
  86 005a 0C46     		mov	r4, r1
  87 005c 7A68     		ldr	r2, [r7, #4]
  88 005e C2E91034 		strd	r3, [r2, #64]
  32:sensorStructs.c ****     updateMemoryVariable(x);
  89              		.loc 1 32 0
  90 0062 7868     		ldr	r0, [r7, #4]
  91 0064 FFF7FEFF 		bl	updateMemoryVariable
  33:sensorStructs.c **** }
  92              		.loc 1 33 0
  93 0068 00BF     		nop
  94 006a 1C37     		adds	r7, r7, #28
  95              		.cfi_def_cfa_offset 12
  96 006c BD46     		mov	sp, r7
  97              		.cfi_def_cfa_register 13
  98              		@ sp needed
  99 006e 90BD     		pop	{r4, r7, pc}
 100              	.L5:
 101              		.align	2
 102              	.L4:
 103 0070 00002E40 		.word	1076756480
 104              		.cfi_endproc
 105              	.LFE63:
 106              		.size	initToZero, .-initToZero
 107              		.section	.text.getValue,"ax",%progbits
 108              		.align	2
 109              		.global	getValue
 110              		.thumb
 111              		.thumb_func
 112              		.type	getValue, %function
 113              	getValue:
 114              	.LFB64:
  34:sensorStructs.c **** 
  35:sensorStructs.c **** double getValue(MemoryVariable *x)
  36:sensorStructs.c **** {
 115              		.loc 1 36 0
 116              		.cfi_startproc
 117              		@ args = 0, pretend = 0, frame = 8
 118              		@ frame_needed = 1, uses_anonymous_args = 0
 119 0000 90B5     		push	{r4, r7, lr}
 120              		.cfi_def_cfa_offset 12
 121              		.cfi_offset 4, -12
 122              		.cfi_offset 7, -8
 123              		.cfi_offset 14, -4
 124 0002 83B0     		sub	sp, sp, #12
 125              		.cfi_def_cfa_offset 24
 126 0004 00AF     		add	r7, sp, #0
 127              		.cfi_def_cfa_register 7
 128 0006 7860     		str	r0, [r7, #4]
  37:sensorStructs.c ****     updateMemoryVariable(x);
 129              		.loc 1 37 0
 130 0008 7868     		ldr	r0, [r7, #4]
 131 000a FFF7FEFF 		bl	updateMemoryVariable
  38:sensorStructs.c ****     return getavg(x);
ARM GAS  C:\Users\Albert\AppData\Local\Temp\ccMEz8U0.s 			page 4


 132              		.loc 1 38 0
 133 000e 7868     		ldr	r0, [r7, #4]
 134 0010 FFF7FEFF 		bl	getavg
 135 0014 0346     		mov	r3, r0
 136 0016 0C46     		mov	r4, r1
  39:sensorStructs.c **** }
 137              		.loc 1 39 0
 138 0018 1846     		mov	r0, r3
 139 001a 2146     		mov	r1, r4
 140 001c 0C37     		adds	r7, r7, #12
 141              		.cfi_def_cfa_offset 12
 142 001e BD46     		mov	sp, r7
 143              		.cfi_def_cfa_register 13
 144              		@ sp needed
 145 0020 90BD     		pop	{r4, r7, pc}
 146              		.cfi_endproc
 147              	.LFE64:
 148              		.size	getValue, .-getValue
 149 0022 00BF     		.section	.text.getValueWithoutUpdate,"ax",%progbits
 150              		.align	2
 151              		.global	getValueWithoutUpdate
 152              		.thumb
 153              		.thumb_func
 154              		.type	getValueWithoutUpdate, %function
 155              	getValueWithoutUpdate:
 156              	.LFB65:
  40:sensorStructs.c **** 
  41:sensorStructs.c **** double getValueWithoutUpdate(MemoryVariable*x)
  42:sensorStructs.c **** {
 157              		.loc 1 42 0
 158              		.cfi_startproc
 159              		@ args = 0, pretend = 0, frame = 8
 160              		@ frame_needed = 1, uses_anonymous_args = 0
 161 0000 90B5     		push	{r4, r7, lr}
 162              		.cfi_def_cfa_offset 12
 163              		.cfi_offset 4, -12
 164              		.cfi_offset 7, -8
 165              		.cfi_offset 14, -4
 166 0002 83B0     		sub	sp, sp, #12
 167              		.cfi_def_cfa_offset 24
 168 0004 00AF     		add	r7, sp, #0
 169              		.cfi_def_cfa_register 7
 170 0006 7860     		str	r0, [r7, #4]
  43:sensorStructs.c ****     return getavg(x);
 171              		.loc 1 43 0
 172 0008 7868     		ldr	r0, [r7, #4]
 173 000a FFF7FEFF 		bl	getavg
 174 000e 0346     		mov	r3, r0
 175 0010 0C46     		mov	r4, r1
  44:sensorStructs.c **** }
 176              		.loc 1 44 0
 177 0012 1846     		mov	r0, r3
 178 0014 2146     		mov	r1, r4
 179 0016 0C37     		adds	r7, r7, #12
 180              		.cfi_def_cfa_offset 12
 181 0018 BD46     		mov	sp, r7
 182              		.cfi_def_cfa_register 13
ARM GAS  C:\Users\Albert\AppData\Local\Temp\ccMEz8U0.s 			page 5


 183              		@ sp needed
 184 001a 90BD     		pop	{r4, r7, pc}
 185              		.cfi_endproc
 186              	.LFE65:
 187              		.size	getValueWithoutUpdate, .-getValueWithoutUpdate
 188              		.section	.text.getDerivative,"ax",%progbits
 189              		.align	2
 190              		.global	getDerivative
 191              		.thumb
 192              		.thumb_func
 193              		.type	getDerivative, %function
 194              	getDerivative:
 195              	.LFB66:
  45:sensorStructs.c **** 
  46:sensorStructs.c **** double getDerivative(MemoryVariable *x)
  47:sensorStructs.c **** {
 196              		.loc 1 47 0
 197              		.cfi_startproc
 198              		@ args = 0, pretend = 0, frame = 8
 199              		@ frame_needed = 1, uses_anonymous_args = 0
 200 0000 90B5     		push	{r4, r7, lr}
 201              		.cfi_def_cfa_offset 12
 202              		.cfi_offset 4, -12
 203              		.cfi_offset 7, -8
 204              		.cfi_offset 14, -4
 205 0002 83B0     		sub	sp, sp, #12
 206              		.cfi_def_cfa_offset 24
 207 0004 00AF     		add	r7, sp, #0
 208              		.cfi_def_cfa_register 7
 209 0006 7860     		str	r0, [r7, #4]
  48:sensorStructs.c ****     updateMemoryVariable(x);
 210              		.loc 1 48 0
 211 0008 7868     		ldr	r0, [r7, #4]
 212 000a FFF7FEFF 		bl	updateMemoryVariable
  49:sensorStructs.c ****     return getder(x);
 213              		.loc 1 49 0
 214 000e 7868     		ldr	r0, [r7, #4]
 215 0010 FFF7FEFF 		bl	getder
 216 0014 0346     		mov	r3, r0
 217 0016 0C46     		mov	r4, r1
  50:sensorStructs.c **** }
 218              		.loc 1 50 0
 219 0018 1846     		mov	r0, r3
 220 001a 2146     		mov	r1, r4
 221 001c 0C37     		adds	r7, r7, #12
 222              		.cfi_def_cfa_offset 12
 223 001e BD46     		mov	sp, r7
 224              		.cfi_def_cfa_register 13
 225              		@ sp needed
 226 0020 90BD     		pop	{r4, r7, pc}
 227              		.cfi_endproc
 228              	.LFE66:
 229              		.size	getDerivative, .-getDerivative
 230 0022 00BF     		.section	.text.getDerivativeWithoutUpdate,"ax",%progbits
 231              		.align	2
 232              		.global	getDerivativeWithoutUpdate
 233              		.thumb
ARM GAS  C:\Users\Albert\AppData\Local\Temp\ccMEz8U0.s 			page 6


 234              		.thumb_func
 235              		.type	getDerivativeWithoutUpdate, %function
 236              	getDerivativeWithoutUpdate:
 237              	.LFB67:
  51:sensorStructs.c **** double getDerivativeWithoutUpdate(MemoryVariable *x)
  52:sensorStructs.c **** {
 238              		.loc 1 52 0
 239              		.cfi_startproc
 240              		@ args = 0, pretend = 0, frame = 8
 241              		@ frame_needed = 1, uses_anonymous_args = 0
 242 0000 90B5     		push	{r4, r7, lr}
 243              		.cfi_def_cfa_offset 12
 244              		.cfi_offset 4, -12
 245              		.cfi_offset 7, -8
 246              		.cfi_offset 14, -4
 247 0002 83B0     		sub	sp, sp, #12
 248              		.cfi_def_cfa_offset 24
 249 0004 00AF     		add	r7, sp, #0
 250              		.cfi_def_cfa_register 7
 251 0006 7860     		str	r0, [r7, #4]
  53:sensorStructs.c ****     return getder(x);
 252              		.loc 1 53 0
 253 0008 7868     		ldr	r0, [r7, #4]
 254 000a FFF7FEFF 		bl	getder
 255 000e 0346     		mov	r3, r0
 256 0010 0C46     		mov	r4, r1
  54:sensorStructs.c **** }
 257              		.loc 1 54 0
 258 0012 1846     		mov	r0, r3
 259 0014 2146     		mov	r1, r4
 260 0016 0C37     		adds	r7, r7, #12
 261              		.cfi_def_cfa_offset 12
 262 0018 BD46     		mov	sp, r7
 263              		.cfi_def_cfa_register 13
 264              		@ sp needed
 265 001a 90BD     		pop	{r4, r7, pc}
 266              		.cfi_endproc
 267              	.LFE67:
 268              		.size	getDerivativeWithoutUpdate, .-getDerivativeWithoutUpdate
 269              		.section	.text.getTime,"ax",%progbits
 270              		.align	2
 271              		.global	getTime
 272              		.thumb
 273              		.thumb_func
 274              		.type	getTime, %function
 275              	getTime:
 276              	.LFB68:
  55:sensorStructs.c **** 
  56:sensorStructs.c **** double getTime(MemoryVariable *x)
  57:sensorStructs.c **** {
 277              		.loc 1 57 0
 278              		.cfi_startproc
 279              		@ args = 0, pretend = 0, frame = 24
 280              		@ frame_needed = 1, uses_anonymous_args = 0
 281 0000 90B5     		push	{r4, r7, lr}
 282              		.cfi_def_cfa_offset 12
 283              		.cfi_offset 4, -12
ARM GAS  C:\Users\Albert\AppData\Local\Temp\ccMEz8U0.s 			page 7


 284              		.cfi_offset 7, -8
 285              		.cfi_offset 14, -4
 286 0002 87B0     		sub	sp, sp, #28
 287              		.cfi_def_cfa_offset 40
 288 0004 00AF     		add	r7, sp, #0
 289              		.cfi_def_cfa_register 7
 290 0006 7860     		str	r0, [r7, #4]
  58:sensorStructs.c ****     double sum = 0;
 291              		.loc 1 58 0
 292 0008 4FF00003 		mov	r3, #0
 293 000c 4FF00004 		mov	r4, #0
 294 0010 C7E90434 		strd	r3, [r7, #16]
 295              	.LBB3:
  59:sensorStructs.c ****     for(int i = 0; i < MEMORY_SIZE; i++)
 296              		.loc 1 59 0
 297 0014 0023     		movs	r3, #0
 298 0016 FB60     		str	r3, [r7, #12]
 299 0018 12E0     		b	.L15
 300              	.L16:
  60:sensorStructs.c ****     {
  61:sensorStructs.c ****         sum+=x->timeStamps[i];
 301              		.loc 1 61 0 discriminator 3
 302 001a 7A68     		ldr	r2, [r7, #4]
 303 001c FB68     		ldr	r3, [r7, #12]
 304 001e 0433     		adds	r3, r3, #4
 305 0020 DB00     		lsls	r3, r3, #3
 306 0022 1344     		add	r3, r3, r2
 307 0024 18CB     		ldmia	r3, {r3-r4}
 308 0026 1A46     		mov	r2, r3
 309 0028 2346     		mov	r3, r4
 310 002a D7E90401 		ldrd	r0, [r7, #16]
 311 002e FFF7FEFF 		bl	__aeabi_dadd
 312 0032 0346     		mov	r3, r0
 313 0034 0C46     		mov	r4, r1
 314 0036 C7E90434 		strd	r3, [r7, #16]
  59:sensorStructs.c ****     for(int i = 0; i < MEMORY_SIZE; i++)
 315              		.loc 1 59 0 discriminator 3
 316 003a FB68     		ldr	r3, [r7, #12]
 317 003c 0133     		adds	r3, r3, #1
 318 003e FB60     		str	r3, [r7, #12]
 319              	.L15:
  59:sensorStructs.c ****     for(int i = 0; i < MEMORY_SIZE; i++)
 320              		.loc 1 59 0 is_stmt 0 discriminator 1
 321 0040 FB68     		ldr	r3, [r7, #12]
 322 0042 032B     		cmp	r3, #3
 323 0044 E9DD     		ble	.L16
 324              	.LBE3:
  62:sensorStructs.c ****     }
  63:sensorStructs.c ****     return sum/MEMORY_SIZE/COUNTER_FREQUENCY;
 325              		.loc 1 63 0 is_stmt 1
 326 0046 4FF00002 		mov	r2, #0
 327 004a 0D4B     		ldr	r3, .L18+8
 328 004c D7E90401 		ldrd	r0, [r7, #16]
 329 0050 FFF7FEFF 		bl	__aeabi_ddiv
 330 0054 0346     		mov	r3, r0
 331 0056 0C46     		mov	r4, r1
 332 0058 1846     		mov	r0, r3
ARM GAS  C:\Users\Albert\AppData\Local\Temp\ccMEz8U0.s 			page 8


 333 005a 2146     		mov	r1, r4
 334 005c 06A3     		adr	r3, .L18
 335 005e D3E90023 		ldrd	r2, [r3]
 336 0062 FFF7FEFF 		bl	__aeabi_ddiv
 337 0066 0346     		mov	r3, r0
 338 0068 0C46     		mov	r4, r1
  64:sensorStructs.c **** }
 339              		.loc 1 64 0
 340 006a 1846     		mov	r0, r3
 341 006c 2146     		mov	r1, r4
 342 006e 1C37     		adds	r7, r7, #28
 343              		.cfi_def_cfa_offset 12
 344 0070 BD46     		mov	sp, r7
 345              		.cfi_def_cfa_register 13
 346              		@ sp needed
 347 0072 90BD     		pop	{r4, r7, pc}
 348              	.L19:
 349 0074 AFF30080 		.align	3
 350              	.L18:
 351 0078 00000000 		.word	0
 352 007c 006AF840 		.word	1090021888
 353 0080 00001040 		.word	1074790400
 354              		.cfi_endproc
 355              	.LFE68:
 356              		.size	getTime, .-getTime
 357              		.global	__aeabi_dsub
 358              		.global	__aeabi_ui2d
 359              		.section	.text.updateMemoryVariable,"ax",%progbits
 360              		.align	2
 361              		.global	updateMemoryVariable
 362              		.thumb
 363              		.thumb_func
 364              		.type	updateMemoryVariable, %function
 365              	updateMemoryVariable:
 366              	.LFB69:
  65:sensorStructs.c **** //Helpers implementation
  66:sensorStructs.c **** void updateMemoryVariable(MemoryVariable *x)
  67:sensorStructs.c **** {
 367              		.loc 1 67 0
 368              		.cfi_startproc
 369              		@ args = 0, pretend = 0, frame = 16
 370              		@ frame_needed = 1, uses_anonymous_args = 0
 371 0000 90B5     		push	{r4, r7, lr}
 372              		.cfi_def_cfa_offset 12
 373              		.cfi_offset 4, -12
 374              		.cfi_offset 7, -8
 375              		.cfi_offset 14, -4
 376 0002 85B0     		sub	sp, sp, #20
 377              		.cfi_def_cfa_offset 32
 378 0004 00AF     		add	r7, sp, #0
 379              		.cfi_def_cfa_register 7
 380 0006 7860     		str	r0, [r7, #4]
 381              	.LBB4:
  68:sensorStructs.c ****     for(int i = 0; i < MEMORY_SIZE; i++)
 382              		.loc 1 68 0
 383 0008 0023     		movs	r3, #0
 384 000a FB60     		str	r3, [r7, #12]
ARM GAS  C:\Users\Albert\AppData\Local\Temp\ccMEz8U0.s 			page 9


 385 000c 29E0     		b	.L21
 386              	.L22:
  69:sensorStructs.c ****     {
  70:sensorStructs.c ****         x->values[i] = x->valueGetter()-x->offset;
 387              		.loc 1 70 0 discriminator 3
 388 000e 7B68     		ldr	r3, [r7, #4]
 389 0010 9B6C     		ldr	r3, [r3, #72]
 390 0012 9847     		blx	r3
 391 0014 7B68     		ldr	r3, [r7, #4]
 392 0016 03F14004 		add	r4, r3, #64
 393 001a D4E90034 		ldrd	r3, [r4]
 394 001e 1A46     		mov	r2, r3
 395 0020 2346     		mov	r3, r4
 396 0022 FFF7FEFF 		bl	__aeabi_dsub
 397 0026 0346     		mov	r3, r0
 398 0028 0C46     		mov	r4, r1
 399 002a 7968     		ldr	r1, [r7, #4]
 400 002c FA68     		ldr	r2, [r7, #12]
 401 002e D200     		lsls	r2, r2, #3
 402 0030 0A44     		add	r2, r2, r1
 403 0032 C2E90034 		strd	r3, [r2]
  71:sensorStructs.c ****         x->timeStamps[i] = (Counter_1_ReadCounter()*1.);
 404              		.loc 1 71 0 discriminator 3
 405 0036 FFF7FEFF 		bl	Counter_1_ReadCounter
 406 003a 0346     		mov	r3, r0
 407 003c 1846     		mov	r0, r3
 408 003e FFF7FEFF 		bl	__aeabi_ui2d
 409 0042 0346     		mov	r3, r0
 410 0044 0C46     		mov	r4, r1
 411 0046 7968     		ldr	r1, [r7, #4]
 412 0048 FA68     		ldr	r2, [r7, #12]
 413 004a 0432     		adds	r2, r2, #4
 414 004c D200     		lsls	r2, r2, #3
 415 004e 0A44     		add	r2, r2, r1
 416 0050 C2E90034 		strd	r3, [r2]
  72:sensorStructs.c ****         CyDelayUs(MIN_SAMPLE_PERIOD);
 417              		.loc 1 72 0 discriminator 3
 418 0054 4FF4C870 		mov	r0, #400
 419 0058 FFF7FEFF 		bl	CyDelayUs
  68:sensorStructs.c ****     {
 420              		.loc 1 68 0 discriminator 3
 421 005c FB68     		ldr	r3, [r7, #12]
 422 005e 0133     		adds	r3, r3, #1
 423 0060 FB60     		str	r3, [r7, #12]
 424              	.L21:
  68:sensorStructs.c ****     {
 425              		.loc 1 68 0 is_stmt 0 discriminator 1
 426 0062 FB68     		ldr	r3, [r7, #12]
 427 0064 032B     		cmp	r3, #3
 428 0066 D2DD     		ble	.L22
 429              	.LBE4:
  73:sensorStructs.c ****     }
  74:sensorStructs.c **** }
 430              		.loc 1 74 0 is_stmt 1
 431 0068 00BF     		nop
 432 006a 1437     		adds	r7, r7, #20
 433              		.cfi_def_cfa_offset 12
ARM GAS  C:\Users\Albert\AppData\Local\Temp\ccMEz8U0.s 			page 10


 434 006c BD46     		mov	sp, r7
 435              		.cfi_def_cfa_register 13
 436              		@ sp needed
 437 006e 90BD     		pop	{r4, r7, pc}
 438              		.cfi_endproc
 439              	.LFE69:
 440              		.size	updateMemoryVariable, .-updateMemoryVariable
 441              		.section	.text.getavg,"ax",%progbits
 442              		.align	2
 443              		.global	getavg
 444              		.thumb
 445              		.thumb_func
 446              		.type	getavg, %function
 447              	getavg:
 448              	.LFB70:
  75:sensorStructs.c **** 
  76:sensorStructs.c **** double getavg(MemoryVariable *x)
  77:sensorStructs.c **** {
 449              		.loc 1 77 0
 450              		.cfi_startproc
 451              		@ args = 0, pretend = 0, frame = 24
 452              		@ frame_needed = 1, uses_anonymous_args = 0
 453 0000 90B5     		push	{r4, r7, lr}
 454              		.cfi_def_cfa_offset 12
 455              		.cfi_offset 4, -12
 456              		.cfi_offset 7, -8
 457              		.cfi_offset 14, -4
 458 0002 87B0     		sub	sp, sp, #28
 459              		.cfi_def_cfa_offset 40
 460 0004 00AF     		add	r7, sp, #0
 461              		.cfi_def_cfa_register 7
 462 0006 7860     		str	r0, [r7, #4]
  78:sensorStructs.c ****     //helper function. calculates the average
  79:sensorStructs.c ****     double sum = 0;
 463              		.loc 1 79 0
 464 0008 4FF00003 		mov	r3, #0
 465 000c 4FF00004 		mov	r4, #0
 466 0010 C7E90434 		strd	r3, [r7, #16]
 467              	.LBB5:
  80:sensorStructs.c ****     for(int i = 0; i < MEMORY_SIZE; i++)
 468              		.loc 1 80 0
 469 0014 0023     		movs	r3, #0
 470 0016 FB60     		str	r3, [r7, #12]
 471 0018 11E0     		b	.L24
 472              	.L25:
  81:sensorStructs.c ****     {
  82:sensorStructs.c ****         sum+=x->values[i];
 473              		.loc 1 82 0 discriminator 3
 474 001a 7A68     		ldr	r2, [r7, #4]
 475 001c FB68     		ldr	r3, [r7, #12]
 476 001e DB00     		lsls	r3, r3, #3
 477 0020 1344     		add	r3, r3, r2
 478 0022 18CB     		ldmia	r3, {r3-r4}
 479 0024 1A46     		mov	r2, r3
 480 0026 2346     		mov	r3, r4
 481 0028 D7E90401 		ldrd	r0, [r7, #16]
 482 002c FFF7FEFF 		bl	__aeabi_dadd
ARM GAS  C:\Users\Albert\AppData\Local\Temp\ccMEz8U0.s 			page 11


 483 0030 0346     		mov	r3, r0
 484 0032 0C46     		mov	r4, r1
 485 0034 C7E90434 		strd	r3, [r7, #16]
  80:sensorStructs.c ****     for(int i = 0; i < MEMORY_SIZE; i++)
 486              		.loc 1 80 0 discriminator 3
 487 0038 FB68     		ldr	r3, [r7, #12]
 488 003a 0133     		adds	r3, r3, #1
 489 003c FB60     		str	r3, [r7, #12]
 490              	.L24:
  80:sensorStructs.c ****     for(int i = 0; i < MEMORY_SIZE; i++)
 491              		.loc 1 80 0 is_stmt 0 discriminator 1
 492 003e FB68     		ldr	r3, [r7, #12]
 493 0040 032B     		cmp	r3, #3
 494 0042 EADD     		ble	.L25
 495              	.LBE5:
  83:sensorStructs.c ****     }
  84:sensorStructs.c ****     return sum/MEMORY_SIZE;
 496              		.loc 1 84 0 is_stmt 1
 497 0044 4FF00002 		mov	r2, #0
 498 0048 054B     		ldr	r3, .L27
 499 004a D7E90401 		ldrd	r0, [r7, #16]
 500 004e FFF7FEFF 		bl	__aeabi_ddiv
 501 0052 0346     		mov	r3, r0
 502 0054 0C46     		mov	r4, r1
  85:sensorStructs.c **** }
 503              		.loc 1 85 0
 504 0056 1846     		mov	r0, r3
 505 0058 2146     		mov	r1, r4
 506 005a 1C37     		adds	r7, r7, #28
 507              		.cfi_def_cfa_offset 12
 508 005c BD46     		mov	sp, r7
 509              		.cfi_def_cfa_register 13
 510              		@ sp needed
 511 005e 90BD     		pop	{r4, r7, pc}
 512              	.L28:
 513              		.align	2
 514              	.L27:
 515 0060 00001040 		.word	1074790400
 516              		.cfi_endproc
 517              	.LFE70:
 518              		.size	getavg, .-getavg
 519              		.global	__aeabi_dcmpgt
 520              		.global	__aeabi_dcmplt
 521              		.global	__aeabi_dmul
 522              		.global	__aeabi_i2d
 523              		.section	.text.getder,"ax",%progbits
 524              		.align	2
 525              		.global	getder
 526              		.thumb
 527              		.thumb_func
 528              		.type	getder, %function
 529              	getder:
 530              	.LFB71:
  86:sensorStructs.c **** double getder(MemoryVariable *x)
  87:sensorStructs.c **** {
 531              		.loc 1 87 0
 532              		.cfi_startproc
ARM GAS  C:\Users\Albert\AppData\Local\Temp\ccMEz8U0.s 			page 12


 533              		@ args = 0, pretend = 0, frame = 40
 534              		@ frame_needed = 1, uses_anonymous_args = 0
 535 0000 2DE9B043 		push	{r4, r5, r7, r8, r9, lr}
 536              		.cfi_def_cfa_offset 24
 537              		.cfi_offset 4, -24
 538              		.cfi_offset 5, -20
 539              		.cfi_offset 7, -16
 540              		.cfi_offset 8, -12
 541              		.cfi_offset 9, -8
 542              		.cfi_offset 14, -4
 543 0004 8AB0     		sub	sp, sp, #40
 544              		.cfi_def_cfa_offset 64
 545 0006 00AF     		add	r7, sp, #0
 546              		.cfi_def_cfa_register 7
 547 0008 7860     		str	r0, [r7, #4]
  88:sensorStructs.c ****     double vAvg = 0;
 548              		.loc 1 88 0
 549 000a 4FF00002 		mov	r2, #0
 550 000e 4FF00003 		mov	r3, #0
 551 0012 C7E90823 		strd	r2, [r7, #32]
  89:sensorStructs.c ****     int added = 0;
 552              		.loc 1 89 0
 553 0016 0023     		movs	r3, #0
 554 0018 FB61     		str	r3, [r7, #28]
 555              	.LBB6:
  90:sensorStructs.c ****     for(int i = 0; i < MEMORY_SIZE-1; i++)
 556              		.loc 1 90 0
 557 001a 0023     		movs	r3, #0
 558 001c BB61     		str	r3, [r7, #24]
 559 001e 83E0     		b	.L30
 560              	.L34:
 561              	.LBB7:
  91:sensorStructs.c ****     {
  92:sensorStructs.c ****         double deltaT = x->timeStamps[i+1]-x->timeStamps[i];
 562              		.loc 1 92 0
 563 0020 BB69     		ldr	r3, [r7, #24]
 564 0022 0133     		adds	r3, r3, #1
 565 0024 7A68     		ldr	r2, [r7, #4]
 566 0026 0433     		adds	r3, r3, #4
 567 0028 DB00     		lsls	r3, r3, #3
 568 002a 1344     		add	r3, r3, r2
 569 002c D3E90001 		ldrd	r0, [r3]
 570 0030 7A68     		ldr	r2, [r7, #4]
 571 0032 BB69     		ldr	r3, [r7, #24]
 572 0034 0433     		adds	r3, r3, #4
 573 0036 DB00     		lsls	r3, r3, #3
 574 0038 1344     		add	r3, r3, r2
 575 003a D3E90023 		ldrd	r2, [r3]
 576 003e FFF7FEFF 		bl	__aeabi_dsub
 577 0042 0246     		mov	r2, r0
 578 0044 0B46     		mov	r3, r1
 579 0046 C7E90423 		strd	r2, [r7, #16]
  93:sensorStructs.c ****         double deltaX = x->values[i+1]-x->values[i];
 580              		.loc 1 93 0
 581 004a BB69     		ldr	r3, [r7, #24]
 582 004c 0133     		adds	r3, r3, #1
 583 004e 7A68     		ldr	r2, [r7, #4]
ARM GAS  C:\Users\Albert\AppData\Local\Temp\ccMEz8U0.s 			page 13


 584 0050 DB00     		lsls	r3, r3, #3
 585 0052 1344     		add	r3, r3, r2
 586 0054 D3E90001 		ldrd	r0, [r3]
 587 0058 7A68     		ldr	r2, [r7, #4]
 588 005a BB69     		ldr	r3, [r7, #24]
 589 005c DB00     		lsls	r3, r3, #3
 590 005e 1344     		add	r3, r3, r2
 591 0060 D3E90023 		ldrd	r2, [r3]
 592 0064 FFF7FEFF 		bl	__aeabi_dsub
 593 0068 0246     		mov	r2, r0
 594 006a 0B46     		mov	r3, r1
 595 006c C7E90223 		strd	r2, [r7, #8]
  94:sensorStructs.c ****         if (deltaT>0 && fabs(deltaX)<500)  //To deal with counter wraparounds
 596              		.loc 1 94 0
 597 0070 4FF00002 		mov	r2, #0
 598 0074 4FF00003 		mov	r3, #0
 599 0078 D7E90401 		ldrd	r0, [r7, #16]
 600 007c FFF7FEFF 		bl	__aeabi_dcmpgt
 601 0080 0346     		mov	r3, r0
 602 0082 002B     		cmp	r3, #0
 603 0084 4DD0     		beq	.L31
 604              		.loc 1 94 0 is_stmt 0 discriminator 1
 605 0086 BC68     		ldr	r4, [r7, #8]
 606 0088 FB68     		ldr	r3, [r7, #12]
 607 008a 23F00045 		bic	r5, r3, #-2147483648
 608 008e 4FF00002 		mov	r2, #0
 609 0092 354B     		ldr	r3, .L38+8
 610 0094 2046     		mov	r0, r4
 611 0096 2946     		mov	r1, r5
 612 0098 FFF7FEFF 		bl	__aeabi_dcmplt
 613 009c 0346     		mov	r3, r0
 614 009e 002B     		cmp	r3, #0
 615 00a0 3FD0     		beq	.L31
  95:sensorStructs.c ****         {
  96:sensorStructs.c ****             vAvg+=(x->values[i+1]-x->values[i])/(x->timeStamps[i+1]-x->timeStamps[i])*COUNTER_FREQU
 616              		.loc 1 96 0 is_stmt 1
 617 00a2 BB69     		ldr	r3, [r7, #24]
 618 00a4 0133     		adds	r3, r3, #1
 619 00a6 7A68     		ldr	r2, [r7, #4]
 620 00a8 DB00     		lsls	r3, r3, #3
 621 00aa 1344     		add	r3, r3, r2
 622 00ac D3E90001 		ldrd	r0, [r3]
 623 00b0 7A68     		ldr	r2, [r7, #4]
 624 00b2 BB69     		ldr	r3, [r7, #24]
 625 00b4 DB00     		lsls	r3, r3, #3
 626 00b6 1344     		add	r3, r3, r2
 627 00b8 D3E90023 		ldrd	r2, [r3]
 628 00bc FFF7FEFF 		bl	__aeabi_dsub
 629 00c0 0246     		mov	r2, r0
 630 00c2 0B46     		mov	r3, r1
 631 00c4 9046     		mov	r8, r2
 632 00c6 9946     		mov	r9, r3
 633 00c8 BB69     		ldr	r3, [r7, #24]
 634 00ca 0133     		adds	r3, r3, #1
 635 00cc 7A68     		ldr	r2, [r7, #4]
 636 00ce 0433     		adds	r3, r3, #4
 637 00d0 DB00     		lsls	r3, r3, #3
ARM GAS  C:\Users\Albert\AppData\Local\Temp\ccMEz8U0.s 			page 14


 638 00d2 1344     		add	r3, r3, r2
 639 00d4 D3E90001 		ldrd	r0, [r3]
 640 00d8 7A68     		ldr	r2, [r7, #4]
 641 00da BB69     		ldr	r3, [r7, #24]
 642 00dc 0433     		adds	r3, r3, #4
 643 00de DB00     		lsls	r3, r3, #3
 644 00e0 1344     		add	r3, r3, r2
 645 00e2 D3E90023 		ldrd	r2, [r3]
 646 00e6 FFF7FEFF 		bl	__aeabi_dsub
 647 00ea 0246     		mov	r2, r0
 648 00ec 0B46     		mov	r3, r1
 649 00ee 4046     		mov	r0, r8
 650 00f0 4946     		mov	r1, r9
 651 00f2 FFF7FEFF 		bl	__aeabi_ddiv
 652 00f6 0246     		mov	r2, r0
 653 00f8 0B46     		mov	r3, r1
 654 00fa 1046     		mov	r0, r2
 655 00fc 1946     		mov	r1, r3
 656 00fe 18A3     		adr	r3, .L38
 657 0100 D3E90023 		ldrd	r2, [r3]
 658 0104 FFF7FEFF 		bl	__aeabi_dmul
 659 0108 0246     		mov	r2, r0
 660 010a 0B46     		mov	r3, r1
 661 010c D7E90801 		ldrd	r0, [r7, #32]
 662 0110 FFF7FEFF 		bl	__aeabi_dadd
 663 0114 0246     		mov	r2, r0
 664 0116 0B46     		mov	r3, r1
 665 0118 C7E90823 		strd	r2, [r7, #32]
  97:sensorStructs.c ****             added++;
 666              		.loc 1 97 0
 667 011c FB69     		ldr	r3, [r7, #28]
 668 011e 0133     		adds	r3, r3, #1
 669 0120 FB61     		str	r3, [r7, #28]
 670              	.L31:
 671              	.LBE7:
  90:sensorStructs.c ****     {
 672              		.loc 1 90 0 discriminator 2
 673 0122 BB69     		ldr	r3, [r7, #24]
 674 0124 0133     		adds	r3, r3, #1
 675 0126 BB61     		str	r3, [r7, #24]
 676              	.L30:
  90:sensorStructs.c ****     {
 677              		.loc 1 90 0 is_stmt 0 discriminator 1
 678 0128 BB69     		ldr	r3, [r7, #24]
 679 012a 022B     		cmp	r3, #2
 680 012c 7FF778AF 		ble	.L34
 681              	.LBE6:
  98:sensorStructs.c ****         }
  99:sensorStructs.c ****     }
 100:sensorStructs.c ****     vAvg/=(added);
 682              		.loc 1 100 0 is_stmt 1
 683 0130 F869     		ldr	r0, [r7, #28]
 684 0132 FFF7FEFF 		bl	__aeabi_i2d
 685 0136 0346     		mov	r3, r0
 686 0138 0C46     		mov	r4, r1
 687 013a 1A46     		mov	r2, r3
 688 013c 2346     		mov	r3, r4
ARM GAS  C:\Users\Albert\AppData\Local\Temp\ccMEz8U0.s 			page 15


 689 013e D7E90801 		ldrd	r0, [r7, #32]
 690 0142 FFF7FEFF 		bl	__aeabi_ddiv
 691 0146 0346     		mov	r3, r0
 692 0148 0C46     		mov	r4, r1
 693 014a C7E90834 		strd	r3, [r7, #32]
 101:sensorStructs.c **** //    double vAvg = 0;
 102:sensorStructs.c **** //    vAvg=(x->values[MEMORY_SIZE-1]-x->values[0])/(x->timeStamps[MEMORY_SIZE-1]-x->timeStamps[0])*
 103:sensorStructs.c ****     return vAvg;
 694              		.loc 1 103 0
 695 014e D7E90834 		ldrd	r3, [r7, #32]
 104:sensorStructs.c **** }
 696              		.loc 1 104 0
 697 0152 1846     		mov	r0, r3
 698 0154 2146     		mov	r1, r4
 699 0156 2837     		adds	r7, r7, #40
 700              		.cfi_def_cfa_offset 24
 701 0158 BD46     		mov	sp, r7
 702              		.cfi_def_cfa_register 13
 703              		@ sp needed
 704 015a BDE8B083 		pop	{r4, r5, r7, r8, r9, pc}
 705              	.L39:
 706 015e 00BF     		.align	3
 707              	.L38:
 708 0160 00000000 		.word	0
 709 0164 006AF840 		.word	1090021888
 710 0168 00407F40 		.word	1082081280
 711              		.cfi_endproc
 712              	.LFE71:
 713              		.size	getder, .-getder
 714              		.text
 715              	.Letext0:
 716              		.file 2 "c:\\program files (x86)\\cypress\\psoc creator\\4.2\\psoc creator\\import\\gnu\\arm\\5.4.
 717              		.file 3 "c:\\program files (x86)\\cypress\\psoc creator\\4.2\\psoc creator\\import\\gnu\\arm\\5.4.
 718              		.file 4 "sensorStructs.h"
 719              		.file 5 "Generated_Source\\PSoC5/core_cm3.h"