ARM GAS  C:\Users\Albert\AppData\Local\Temp\ccJDFDki.s 			page 1


   1              		.syntax unified
   2              		.cpu cortex-m3
   3              		.fpu softvfp
   4              		.eabi_attribute 20, 1
   5              		.eabi_attribute 21, 1
   6              		.eabi_attribute 23, 3
   7              		.eabi_attribute 24, 1
   8              		.eabi_attribute 25, 1
   9              		.eabi_attribute 26, 1
  10              		.eabi_attribute 30, 6
  11              		.eabi_attribute 34, 1
  12              		.eabi_attribute 18, 4
  13              		.thumb
  14              		.syntax unified
  15              		.file	"structs.c"
  16              		.text
  17              	.Ltext0:
  18              		.cfi_sections	.debug_frame
  19              		.section	.text.initToZero,"ax",%progbits
  20              		.align	2
  21              		.global	initToZero
  22              		.thumb
  23              		.thumb_func
  24              		.type	initToZero, %function
  25              	initToZero:
  26              	.LFB63:
  27              		.file 1 "structs.c"
   1:structs.c     **** /* ========================================
   2:structs.c     ****  *
   3:structs.c     ****  * Copyright Albert Wu, 2018
   4:structs.c     ****  * All Rights Reserved
   5:structs.c     ****  * UNPUBLISHED, LICENSED SOFTWARE.
   6:structs.c     ****  *
   7:structs.c     ****  * CONFIDENTIAL AND PROPRIETARY INFORMATION
   8:structs.c     ****  * WHICH IS THE PROPERTY OF your company.
   9:structs.c     ****  *
  10:structs.c     ****  * ========================================
  11:structs.c     **** */
  12:structs.c     **** #include <project.h>
  13:structs.c     **** #include <device.h>
  14:structs.c     **** 
  15:structs.c     **** #include "structs.h"
  16:structs.c     **** 
  17:structs.c     **** //helper functions
  18:structs.c     **** float getavg(MemoryVariable *x);
  19:structs.c     **** float getder(MemoryVariable *x);
  20:structs.c     **** void updateMemoryVariable(MemoryVariable *x);
  21:structs.c     **** 
  22:structs.c     **** void initToZero(MemoryVariable *x)
  23:structs.c     **** {
  28              		.loc 1 23 0
  29              		.cfi_startproc
  30              		@ args = 0, pretend = 0, frame = 8
  31              		@ frame_needed = 1, uses_anonymous_args = 0
  32 0000 80B5     		push	{r7, lr}
  33              		.cfi_def_cfa_offset 8
  34              		.cfi_offset 7, -8
ARM GAS  C:\Users\Albert\AppData\Local\Temp\ccJDFDki.s 			page 2


  35              		.cfi_offset 14, -4
  36 0002 82B0     		sub	sp, sp, #8
  37              		.cfi_def_cfa_offset 16
  38 0004 00AF     		add	r7, sp, #0
  39              		.cfi_def_cfa_register 7
  40 0006 7860     		str	r0, [r7, #4]
  24:structs.c     ****     //samples initial values
  25:structs.c     ****     updateMemoryVariable(x);
  41              		.loc 1 25 0
  42 0008 7868     		ldr	r0, [r7, #4]
  43 000a FFF7FEFF 		bl	updateMemoryVariable
  26:structs.c     ****     x->offset=getavg(x);
  44              		.loc 1 26 0
  45 000e 7868     		ldr	r0, [r7, #4]
  46 0010 FFF7FEFF 		bl	getavg
  47 0014 0246     		mov	r2, r0
  48 0016 7B68     		ldr	r3, [r7, #4]
  49 0018 9A62     		str	r2, [r3, #40]	@ float
  27:structs.c     **** }
  50              		.loc 1 27 0
  51 001a 00BF     		nop
  52 001c 0837     		adds	r7, r7, #8
  53              		.cfi_def_cfa_offset 8
  54 001e BD46     		mov	sp, r7
  55              		.cfi_def_cfa_register 13
  56              		@ sp needed
  57 0020 80BD     		pop	{r7, pc}
  58              		.cfi_endproc
  59              	.LFE63:
  60              		.size	initToZero, .-initToZero
  61 0022 00BF     		.section	.text.getValue,"ax",%progbits
  62              		.align	2
  63              		.global	getValue
  64              		.thumb
  65              		.thumb_func
  66              		.type	getValue, %function
  67              	getValue:
  68              	.LFB64:
  28:structs.c     **** 
  29:structs.c     **** float getValue(MemoryVariable *x)
  30:structs.c     **** {
  69              		.loc 1 30 0
  70              		.cfi_startproc
  71              		@ args = 0, pretend = 0, frame = 8
  72              		@ frame_needed = 1, uses_anonymous_args = 0
  73 0000 80B5     		push	{r7, lr}
  74              		.cfi_def_cfa_offset 8
  75              		.cfi_offset 7, -8
  76              		.cfi_offset 14, -4
  77 0002 82B0     		sub	sp, sp, #8
  78              		.cfi_def_cfa_offset 16
  79 0004 00AF     		add	r7, sp, #0
  80              		.cfi_def_cfa_register 7
  81 0006 7860     		str	r0, [r7, #4]
  31:structs.c     ****     updateMemoryVariable(x);
  82              		.loc 1 31 0
  83 0008 7868     		ldr	r0, [r7, #4]
ARM GAS  C:\Users\Albert\AppData\Local\Temp\ccJDFDki.s 			page 3


  84 000a FFF7FEFF 		bl	updateMemoryVariable
  32:structs.c     ****     return getavg(x);
  85              		.loc 1 32 0
  86 000e 7868     		ldr	r0, [r7, #4]
  87 0010 FFF7FEFF 		bl	getavg
  88 0014 0346     		mov	r3, r0
  33:structs.c     **** }
  89              		.loc 1 33 0
  90 0016 1846     		mov	r0, r3
  91 0018 0837     		adds	r7, r7, #8
  92              		.cfi_def_cfa_offset 8
  93 001a BD46     		mov	sp, r7
  94              		.cfi_def_cfa_register 13
  95              		@ sp needed
  96 001c 80BD     		pop	{r7, pc}
  97              		.cfi_endproc
  98              	.LFE64:
  99              		.size	getValue, .-getValue
 100 001e 00BF     		.section	.text.getValueWithoutUpdate,"ax",%progbits
 101              		.align	2
 102              		.global	getValueWithoutUpdate
 103              		.thumb
 104              		.thumb_func
 105              		.type	getValueWithoutUpdate, %function
 106              	getValueWithoutUpdate:
 107              	.LFB65:
  34:structs.c     **** 
  35:structs.c     **** float getValueWithoutUpdate(MemoryVariable*x)
  36:structs.c     **** {
 108              		.loc 1 36 0
 109              		.cfi_startproc
 110              		@ args = 0, pretend = 0, frame = 8
 111              		@ frame_needed = 1, uses_anonymous_args = 0
 112 0000 80B5     		push	{r7, lr}
 113              		.cfi_def_cfa_offset 8
 114              		.cfi_offset 7, -8
 115              		.cfi_offset 14, -4
 116 0002 82B0     		sub	sp, sp, #8
 117              		.cfi_def_cfa_offset 16
 118 0004 00AF     		add	r7, sp, #0
 119              		.cfi_def_cfa_register 7
 120 0006 7860     		str	r0, [r7, #4]
  37:structs.c     ****     return getavg(x);
 121              		.loc 1 37 0
 122 0008 7868     		ldr	r0, [r7, #4]
 123 000a FFF7FEFF 		bl	getavg
 124 000e 0346     		mov	r3, r0
  38:structs.c     **** }
 125              		.loc 1 38 0
 126 0010 1846     		mov	r0, r3
 127 0012 0837     		adds	r7, r7, #8
 128              		.cfi_def_cfa_offset 8
 129 0014 BD46     		mov	sp, r7
 130              		.cfi_def_cfa_register 13
 131              		@ sp needed
 132 0016 80BD     		pop	{r7, pc}
 133              		.cfi_endproc
ARM GAS  C:\Users\Albert\AppData\Local\Temp\ccJDFDki.s 			page 4


 134              	.LFE65:
 135              		.size	getValueWithoutUpdate, .-getValueWithoutUpdate
 136              		.section	.text.getDerivative,"ax",%progbits
 137              		.align	2
 138              		.global	getDerivative
 139              		.thumb
 140              		.thumb_func
 141              		.type	getDerivative, %function
 142              	getDerivative:
 143              	.LFB66:
  39:structs.c     **** 
  40:structs.c     **** float getDerivative(MemoryVariable *x)
  41:structs.c     **** {
 144              		.loc 1 41 0
 145              		.cfi_startproc
 146              		@ args = 0, pretend = 0, frame = 8
 147              		@ frame_needed = 1, uses_anonymous_args = 0
 148 0000 80B5     		push	{r7, lr}
 149              		.cfi_def_cfa_offset 8
 150              		.cfi_offset 7, -8
 151              		.cfi_offset 14, -4
 152 0002 82B0     		sub	sp, sp, #8
 153              		.cfi_def_cfa_offset 16
 154 0004 00AF     		add	r7, sp, #0
 155              		.cfi_def_cfa_register 7
 156 0006 7860     		str	r0, [r7, #4]
  42:structs.c     ****     updateMemoryVariable(x);
 157              		.loc 1 42 0
 158 0008 7868     		ldr	r0, [r7, #4]
 159 000a FFF7FEFF 		bl	updateMemoryVariable
  43:structs.c     ****     return getder(x);
 160              		.loc 1 43 0
 161 000e 7868     		ldr	r0, [r7, #4]
 162 0010 FFF7FEFF 		bl	getder
 163 0014 0346     		mov	r3, r0
  44:structs.c     **** }
 164              		.loc 1 44 0
 165 0016 1846     		mov	r0, r3
 166 0018 0837     		adds	r7, r7, #8
 167              		.cfi_def_cfa_offset 8
 168 001a BD46     		mov	sp, r7
 169              		.cfi_def_cfa_register 13
 170              		@ sp needed
 171 001c 80BD     		pop	{r7, pc}
 172              		.cfi_endproc
 173              	.LFE66:
 174              		.size	getDerivative, .-getDerivative
 175              		.global	__aeabi_ui2f
 176 001e 00BF     		.section	.text.updateMemoryVariable,"ax",%progbits
 177              		.align	2
 178              		.global	updateMemoryVariable
 179              		.thumb
 180              		.thumb_func
 181              		.type	updateMemoryVariable, %function
 182              	updateMemoryVariable:
 183              	.LFB67:
  45:structs.c     **** 
ARM GAS  C:\Users\Albert\AppData\Local\Temp\ccJDFDki.s 			page 5


  46:structs.c     **** //Helpers implementation
  47:structs.c     **** void updateMemoryVariable(MemoryVariable *x)
  48:structs.c     **** {
 184              		.loc 1 48 0
 185              		.cfi_startproc
 186              		@ args = 0, pretend = 0, frame = 16
 187              		@ frame_needed = 1, uses_anonymous_args = 0
 188 0000 80B5     		push	{r7, lr}
 189              		.cfi_def_cfa_offset 8
 190              		.cfi_offset 7, -8
 191              		.cfi_offset 14, -4
 192 0002 84B0     		sub	sp, sp, #16
 193              		.cfi_def_cfa_offset 24
 194 0004 00AF     		add	r7, sp, #0
 195              		.cfi_def_cfa_register 7
 196 0006 7860     		str	r0, [r7, #4]
 197              	.LBB2:
  49:structs.c     ****     for(int i = 0; i < MEMORY_SIZE; i++)
 198              		.loc 1 49 0
 199 0008 0023     		movs	r3, #0
 200 000a FB60     		str	r3, [r7, #12]
 201 000c 1AE0     		b	.L9
 202              	.L10:
  50:structs.c     ****     {
  51:structs.c     ****         x->values[i] = x->valueGetter();
 203              		.loc 1 51 0 discriminator 3
 204 000e 7B68     		ldr	r3, [r7, #4]
 205 0010 DB6A     		ldr	r3, [r3, #44]
 206 0012 9847     		blx	r3
 207 0014 0146     		mov	r1, r0
 208 0016 7B68     		ldr	r3, [r7, #4]
 209 0018 FA68     		ldr	r2, [r7, #12]
 210 001a 43F82210 		str	r1, [r3, r2, lsl #2]	@ float
  52:structs.c     ****         x->timeStamps[i] = Counter_1_ReadCounter()*COUNTER_FREQUENCY;
 211              		.loc 1 52 0 discriminator 3
 212 001e FFF7FEFF 		bl	Counter_1_ReadCounter
 213 0022 0246     		mov	r2, r0
 214 0024 0B4B     		ldr	r3, .L11
 215 0026 03FB02F3 		mul	r3, r3, r2
 216 002a 1846     		mov	r0, r3
 217 002c FFF7FEFF 		bl	__aeabi_ui2f
 218 0030 0146     		mov	r1, r0
 219 0032 7A68     		ldr	r2, [r7, #4]
 220 0034 FB68     		ldr	r3, [r7, #12]
 221 0036 0433     		adds	r3, r3, #4
 222 0038 9B00     		lsls	r3, r3, #2
 223 003a 1344     		add	r3, r3, r2
 224 003c 5960     		str	r1, [r3, #4]	@ float
  49:structs.c     ****     for(int i = 0; i < MEMORY_SIZE; i++)
 225              		.loc 1 49 0 discriminator 3
 226 003e FB68     		ldr	r3, [r7, #12]
 227 0040 0133     		adds	r3, r3, #1
 228 0042 FB60     		str	r3, [r7, #12]
 229              	.L9:
  49:structs.c     ****     for(int i = 0; i < MEMORY_SIZE; i++)
 230              		.loc 1 49 0 is_stmt 0 discriminator 1
 231 0044 FB68     		ldr	r3, [r7, #12]
ARM GAS  C:\Users\Albert\AppData\Local\Temp\ccJDFDki.s 			page 6


 232 0046 042B     		cmp	r3, #4
 233 0048 E1DD     		ble	.L10
 234              	.LBE2:
  53:structs.c     ****     }
  54:structs.c     **** }
 235              		.loc 1 54 0 is_stmt 1
 236 004a 00BF     		nop
 237 004c 1037     		adds	r7, r7, #16
 238              		.cfi_def_cfa_offset 8
 239 004e BD46     		mov	sp, r7
 240              		.cfi_def_cfa_register 13
 241              		@ sp needed
 242 0050 80BD     		pop	{r7, pc}
 243              	.L12:
 244 0052 00BF     		.align	2
 245              	.L11:
 246 0054 A0860100 		.word	100000
 247              		.cfi_endproc
 248              	.LFE67:
 249              		.size	updateMemoryVariable, .-updateMemoryVariable
 250              		.global	__aeabi_fsub
 251              		.global	__aeabi_fadd
 252              		.global	__aeabi_fdiv
 253              		.section	.text.getavg,"ax",%progbits
 254              		.align	2
 255              		.global	getavg
 256              		.thumb
 257              		.thumb_func
 258              		.type	getavg, %function
 259              	getavg:
 260              	.LFB68:
  55:structs.c     **** 
  56:structs.c     **** float getavg(MemoryVariable *x)
  57:structs.c     **** {
 261              		.loc 1 57 0
 262              		.cfi_startproc
 263              		@ args = 0, pretend = 0, frame = 16
 264              		@ frame_needed = 1, uses_anonymous_args = 0
 265 0000 80B5     		push	{r7, lr}
 266              		.cfi_def_cfa_offset 8
 267              		.cfi_offset 7, -8
 268              		.cfi_offset 14, -4
 269 0002 84B0     		sub	sp, sp, #16
 270              		.cfi_def_cfa_offset 24
 271 0004 00AF     		add	r7, sp, #0
 272              		.cfi_def_cfa_register 7
 273 0006 7860     		str	r0, [r7, #4]
  58:structs.c     ****     //helper function. calculates the average
  59:structs.c     ****     float sum = 0;
 274              		.loc 1 59 0
 275 0008 4FF00003 		mov	r3, #0
 276 000c FB60     		str	r3, [r7, #12]	@ float
 277              	.LBB3:
  60:structs.c     ****     for(int i = 0; i < MEMORY_SIZE; i++)
 278              		.loc 1 60 0
 279 000e 0023     		movs	r3, #0
 280 0010 BB60     		str	r3, [r7, #8]
ARM GAS  C:\Users\Albert\AppData\Local\Temp\ccJDFDki.s 			page 7


 281 0012 13E0     		b	.L14
 282              	.L15:
  61:structs.c     ****     {
  62:structs.c     ****         sum+=x->values[i]-x->offset;
 283              		.loc 1 62 0 discriminator 3
 284 0014 7B68     		ldr	r3, [r7, #4]
 285 0016 BA68     		ldr	r2, [r7, #8]
 286 0018 53F82220 		ldr	r2, [r3, r2, lsl #2]	@ float
 287 001c 7B68     		ldr	r3, [r7, #4]
 288 001e 9B6A     		ldr	r3, [r3, #40]	@ float
 289 0020 1946     		mov	r1, r3
 290 0022 1046     		mov	r0, r2
 291 0024 FFF7FEFF 		bl	__aeabi_fsub
 292 0028 0346     		mov	r3, r0
 293 002a 1946     		mov	r1, r3
 294 002c F868     		ldr	r0, [r7, #12]	@ float
 295 002e FFF7FEFF 		bl	__aeabi_fadd
 296 0032 0346     		mov	r3, r0
 297 0034 FB60     		str	r3, [r7, #12]	@ float
  60:structs.c     ****     for(int i = 0; i < MEMORY_SIZE; i++)
 298              		.loc 1 60 0 discriminator 3
 299 0036 BB68     		ldr	r3, [r7, #8]
 300 0038 0133     		adds	r3, r3, #1
 301 003a BB60     		str	r3, [r7, #8]
 302              	.L14:
  60:structs.c     ****     for(int i = 0; i < MEMORY_SIZE; i++)
 303              		.loc 1 60 0 is_stmt 0 discriminator 1
 304 003c BB68     		ldr	r3, [r7, #8]
 305 003e 042B     		cmp	r3, #4
 306 0040 E8DD     		ble	.L15
 307              	.LBE3:
  63:structs.c     ****     }
  64:structs.c     ****     return sum/MEMORY_SIZE;
 308              		.loc 1 64 0 is_stmt 1
 309 0042 0449     		ldr	r1, .L17
 310 0044 F868     		ldr	r0, [r7, #12]	@ float
 311 0046 FFF7FEFF 		bl	__aeabi_fdiv
 312 004a 0346     		mov	r3, r0
  65:structs.c     **** }
 313              		.loc 1 65 0
 314 004c 1846     		mov	r0, r3
 315 004e 1037     		adds	r7, r7, #16
 316              		.cfi_def_cfa_offset 8
 317 0050 BD46     		mov	sp, r7
 318              		.cfi_def_cfa_register 13
 319              		@ sp needed
 320 0052 80BD     		pop	{r7, pc}
 321              	.L18:
 322              		.align	2
 323              	.L17:
 324 0054 0000A040 		.word	1084227584
 325              		.cfi_endproc
 326              	.LFE68:
 327              		.size	getavg, .-getavg
 328              		.section	.text.getder,"ax",%progbits
 329              		.align	2
 330              		.global	getder
ARM GAS  C:\Users\Albert\AppData\Local\Temp\ccJDFDki.s 			page 8


 331              		.thumb
 332              		.thumb_func
 333              		.type	getder, %function
 334              	getder:
 335              	.LFB69:
  66:structs.c     **** float getder(MemoryVariable *x)
  67:structs.c     **** {
 336              		.loc 1 67 0
 337              		.cfi_startproc
 338              		@ args = 0, pretend = 0, frame = 16
 339              		@ frame_needed = 1, uses_anonymous_args = 0
 340 0000 90B5     		push	{r4, r7, lr}
 341              		.cfi_def_cfa_offset 12
 342              		.cfi_offset 4, -12
 343              		.cfi_offset 7, -8
 344              		.cfi_offset 14, -4
 345 0002 85B0     		sub	sp, sp, #20
 346              		.cfi_def_cfa_offset 32
 347 0004 00AF     		add	r7, sp, #0
 348              		.cfi_def_cfa_register 7
 349 0006 7860     		str	r0, [r7, #4]
  68:structs.c     ****     float vAvg = 0;
 350              		.loc 1 68 0
 351 0008 4FF00003 		mov	r3, #0
 352 000c FB60     		str	r3, [r7, #12]	@ float
 353              	.LBB4:
  69:structs.c     ****     for(int i = 0; i < MEMORY_SIZE-1; i++)
 354              		.loc 1 69 0
 355 000e 0023     		movs	r3, #0
 356 0010 BB60     		str	r3, [r7, #8]
 357 0012 2CE0     		b	.L20
 358              	.L21:
  70:structs.c     ****     {
  71:structs.c     ****         vAvg+=(x->values[i+1]-x->values[i])/(x->timeStamps[i+1]-x->timeStamps[i]);
 359              		.loc 1 71 0 discriminator 3
 360 0014 BB68     		ldr	r3, [r7, #8]
 361 0016 5A1C     		adds	r2, r3, #1
 362 0018 7B68     		ldr	r3, [r7, #4]
 363 001a 53F82200 		ldr	r0, [r3, r2, lsl #2]	@ float
 364 001e 7B68     		ldr	r3, [r7, #4]
 365 0020 BA68     		ldr	r2, [r7, #8]
 366 0022 53F82230 		ldr	r3, [r3, r2, lsl #2]	@ float
 367 0026 1946     		mov	r1, r3
 368 0028 FFF7FEFF 		bl	__aeabi_fsub
 369 002c 0346     		mov	r3, r0
 370 002e 1C46     		mov	r4, r3
 371 0030 BB68     		ldr	r3, [r7, #8]
 372 0032 0133     		adds	r3, r3, #1
 373 0034 7A68     		ldr	r2, [r7, #4]
 374 0036 0433     		adds	r3, r3, #4
 375 0038 9B00     		lsls	r3, r3, #2
 376 003a 1344     		add	r3, r3, r2
 377 003c 5868     		ldr	r0, [r3, #4]	@ float
 378 003e 7A68     		ldr	r2, [r7, #4]
 379 0040 BB68     		ldr	r3, [r7, #8]
 380 0042 0433     		adds	r3, r3, #4
 381 0044 9B00     		lsls	r3, r3, #2
ARM GAS  C:\Users\Albert\AppData\Local\Temp\ccJDFDki.s 			page 9


 382 0046 1344     		add	r3, r3, r2
 383 0048 5B68     		ldr	r3, [r3, #4]	@ float
 384 004a 1946     		mov	r1, r3
 385 004c FFF7FEFF 		bl	__aeabi_fsub
 386 0050 0346     		mov	r3, r0
 387 0052 1946     		mov	r1, r3
 388 0054 2046     		mov	r0, r4
 389 0056 FFF7FEFF 		bl	__aeabi_fdiv
 390 005a 0346     		mov	r3, r0
 391 005c 1946     		mov	r1, r3
 392 005e F868     		ldr	r0, [r7, #12]	@ float
 393 0060 FFF7FEFF 		bl	__aeabi_fadd
 394 0064 0346     		mov	r3, r0
 395 0066 FB60     		str	r3, [r7, #12]	@ float
  69:structs.c     ****     for(int i = 0; i < MEMORY_SIZE-1; i++)
 396              		.loc 1 69 0 discriminator 3
 397 0068 BB68     		ldr	r3, [r7, #8]
 398 006a 0133     		adds	r3, r3, #1
 399 006c BB60     		str	r3, [r7, #8]
 400              	.L20:
  69:structs.c     ****     for(int i = 0; i < MEMORY_SIZE-1; i++)
 401              		.loc 1 69 0 is_stmt 0 discriminator 1
 402 006e BB68     		ldr	r3, [r7, #8]
 403 0070 032B     		cmp	r3, #3
 404 0072 CFDD     		ble	.L21
 405              	.LBE4:
  72:structs.c     ****     }
  73:structs.c     ****     vAvg/=(MEMORY_SIZE-1);
 406              		.loc 1 73 0 is_stmt 1
 407 0074 4FF08141 		mov	r1, #1082130432
 408 0078 F868     		ldr	r0, [r7, #12]	@ float
 409 007a FFF7FEFF 		bl	__aeabi_fdiv
 410 007e 0346     		mov	r3, r0
 411 0080 FB60     		str	r3, [r7, #12]	@ float
  74:structs.c     ****     return vAvg;
 412              		.loc 1 74 0
 413 0082 FB68     		ldr	r3, [r7, #12]	@ float
  75:structs.c     **** }
 414              		.loc 1 75 0
 415 0084 1846     		mov	r0, r3
 416 0086 1437     		adds	r7, r7, #20
 417              		.cfi_def_cfa_offset 12
 418 0088 BD46     		mov	sp, r7
 419              		.cfi_def_cfa_register 13
 420              		@ sp needed
 421 008a 90BD     		pop	{r4, r7, pc}
 422              		.cfi_endproc
 423              	.LFE69:
 424              		.size	getder, .-getder
 425              		.text
 426              	.Letext0:
 427              		.file 2 "c:\\program files (x86)\\cypress\\psoc creator\\4.2\\psoc creator\\import\\gnu\\arm\\5.4.
 428              		.file 3 "c:\\program files (x86)\\cypress\\psoc creator\\4.2\\psoc creator\\import\\gnu\\arm\\5.4.
 429              		.file 4 "structs.h"
 430              		.file 5 "Generated_Source\\PSoC5/core_cm3.h"