ARM GAS  C:\Users\Albert\AppData\Local\Temp\ccTTlgdU.s 			page 1


   1              		.syntax unified
   2              		.cpu cortex-m3
   3              		.fpu softvfp
   4              		.eabi_attribute 20, 1
   5              		.eabi_attribute 21, 1
   6              		.eabi_attribute 23, 3
   7              		.eabi_attribute 24, 1
   8              		.eabi_attribute 25, 1
   9              		.eabi_attribute 26, 1
  10              		.eabi_attribute 30, 6
  11              		.eabi_attribute 34, 1
  12              		.eabi_attribute 18, 4
  13              		.thumb
  14              		.syntax unified
  15              		.file	"test.c"
  16              		.text
  17              	.Ltext0:
  18              		.cfi_sections	.debug_frame
  19              		.section	.text.initTests,"ax",%progbits
  20              		.align	2
  21              		.global	initTests
  22              		.thumb
  23              		.thumb_func
  24              		.type	initTests, %function
  25              	initTests:
  26              	.LFB64:
  27              		.file 1 "test.c"
   1:test.c        **** /* ========================================
   2:test.c        ****  *
   3:test.c        ****  * Copyright Albert Wu, 2018
   4:test.c        ****  * All Rights Reserved
   5:test.c        ****  * UNPUBLISHED, LICENSED SOFTWARE.
   6:test.c        ****  *
   7:test.c        ****  * CONFIDENTIAL AND PROPRIETARY INFORMATION
   8:test.c        ****  * WHICH IS THE PROPERTY OF your company.
   9:test.c        ****  *
  10:test.c        ****  * ========================================
  11:test.c        **** */
  12:test.c        **** 
  13:test.c        **** #include <string.h>
  14:test.c        **** #include <time.h>
  15:test.c        **** #include <stdlib.h>
  16:test.c        **** #include <stdio.h>
  17:test.c        **** #include <math.h>
  18:test.c        **** #include "hardware.h"
  19:test.c        **** #include "hardwareParameters.h"
  20:test.c        **** #include "controllers.h"
  21:test.c        **** #include "mathUtility.h"
  22:test.c        **** #include "sensorStructs.h"
  23:test.c        **** 
  24:test.c        **** extern MemoryVariable thetaShoulder;
  25:test.c        **** extern MemoryVariable thetaWheel;
  26:test.c        **** extern MemoryVariable torque; 
  27:test.c        **** 
  28:test.c        **** void initTests()
  29:test.c        **** {
  28              		.loc 1 29 0
ARM GAS  C:\Users\Albert\AppData\Local\Temp\ccTTlgdU.s 			page 2


  29              		.cfi_startproc
  30              		@ args = 0, pretend = 0, frame = 0
  31              		@ frame_needed = 1, uses_anonymous_args = 0
  32 0000 80B5     		push	{r7, lr}
  33              		.cfi_def_cfa_offset 8
  34              		.cfi_offset 7, -8
  35              		.cfi_offset 14, -4
  36 0002 00AF     		add	r7, sp, #0
  37              		.cfi_def_cfa_register 7
  30:test.c        ****     srand(time(NULL));   
  38              		.loc 1 30 0
  39 0004 0020     		movs	r0, #0
  40 0006 FFF7FEFF 		bl	time
  41 000a 0346     		mov	r3, r0
  42 000c 1846     		mov	r0, r3
  43 000e FFF7FEFF 		bl	srand
  31:test.c        **** }
  44              		.loc 1 31 0
  45 0012 00BF     		nop
  46 0014 80BD     		pop	{r7, pc}
  47              		.cfi_endproc
  48              	.LFE64:
  49              		.size	initTests, .-initTests
  50 0016 00BF     		.section	.rodata
  51              		.align	2
  52              	.LC0:
  53 0000 4D747220 		.ascii	"Mtr Dec: \000"
  53      4465633A 
  53      2000
  54              		.global	__aeabi_i2d
  55 000a 0000     		.align	2
  56              	.LC1:
  57 000c 53686472 		.ascii	"Shdr Dec: \000"
  57      20446563 
  57      3A2000
  58              		.section	.text.testDec,"ax",%progbits
  59              		.align	2
  60              		.global	testDec
  61              		.thumb
  62              		.thumb_func
  63              		.type	testDec, %function
  64              	testDec:
  65              	.LFB65:
  32:test.c        **** void testDec()
  33:test.c        **** {
  66              		.loc 1 33 0
  67              		.cfi_startproc
  68              		@ args = 0, pretend = 0, frame = 0
  69              		@ frame_needed = 1, uses_anonymous_args = 0
  70 0000 98B5     		push	{r3, r4, r7, lr}
  71              		.cfi_def_cfa_offset 16
  72              		.cfi_offset 3, -16
  73              		.cfi_offset 4, -12
  74              		.cfi_offset 7, -8
  75              		.cfi_offset 14, -4
  76 0002 00AF     		add	r7, sp, #0
  77              		.cfi_def_cfa_register 7
ARM GAS  C:\Users\Albert\AppData\Local\Temp\ccTTlgdU.s 			page 3


  34:test.c        ****     LCD_ClearDisplay();
  78              		.loc 1 34 0
  79 0004 0120     		movs	r0, #1
  80 0006 FFF7FEFF 		bl	LCD_WriteControl
  35:test.c        ****     LCD_PrintString("Mtr Dec: ");
  81              		.loc 1 35 0
  82 000a 1348     		ldr	r0, .L3
  83 000c FFF7FEFF 		bl	LCD_PrintString
  36:test.c        ****     printdouble(getMotorDecReading(),3);
  84              		.loc 1 36 0
  85 0010 FFF7FEFF 		bl	getMotorDecReading
  86 0014 0346     		mov	r3, r0
  87 0016 1846     		mov	r0, r3
  88 0018 FFF7FEFF 		bl	__aeabi_i2d
  89 001c 0346     		mov	r3, r0
  90 001e 0C46     		mov	r4, r1
  91 0020 0322     		movs	r2, #3
  92 0022 1846     		mov	r0, r3
  93 0024 2146     		mov	r1, r4
  94 0026 FFF7FEFF 		bl	printdouble
  37:test.c        ****     LCD_Position(1, 0);  //line feed
  95              		.loc 1 37 0
  96 002a 0021     		movs	r1, #0
  97 002c 0120     		movs	r0, #1
  98 002e FFF7FEFF 		bl	LCD_Position
  38:test.c        ****     LCD_PrintString("Shdr Dec: ");
  99              		.loc 1 38 0
 100 0032 0A48     		ldr	r0, .L3+4
 101 0034 FFF7FEFF 		bl	LCD_PrintString
  39:test.c        ****     printdouble(getShoulderDecReading(),3);    
 102              		.loc 1 39 0
 103 0038 FFF7FEFF 		bl	getShoulderDecReading
 104 003c 0346     		mov	r3, r0
 105 003e 1846     		mov	r0, r3
 106 0040 FFF7FEFF 		bl	__aeabi_i2d
 107 0044 0346     		mov	r3, r0
 108 0046 0C46     		mov	r4, r1
 109 0048 0322     		movs	r2, #3
 110 004a 1846     		mov	r0, r3
 111 004c 2146     		mov	r1, r4
 112 004e FFF7FEFF 		bl	printdouble
  40:test.c        **** }
 113              		.loc 1 40 0
 114 0052 00BF     		nop
 115 0054 98BD     		pop	{r3, r4, r7, pc}
 116              	.L4:
 117 0056 00BF     		.align	2
 118              	.L3:
 119 0058 00000000 		.word	.LC0
 120 005c 0C000000 		.word	.LC1
 121              		.cfi_endproc
 122              	.LFE65:
 123              		.size	testDec, .-testDec
 124              		.section	.rodata
 125 0017 00       		.align	2
 126              	.LC2:
 127 0018 54686574 		.ascii	"ThetaW: \000"
ARM GAS  C:\Users\Albert\AppData\Local\Temp\ccTTlgdU.s 			page 4


 127      61573A20 
 127      00
 128 0021 000000   		.align	2
 129              	.LC3:
 130 0024 4F6D6567 		.ascii	"OmegaW: \000"
 130      61573A20 
 130      00
 131              		.section	.text.testThetaWheel,"ax",%progbits
 132              		.align	2
 133              		.global	testThetaWheel
 134              		.thumb
 135              		.thumb_func
 136              		.type	testThetaWheel, %function
 137              	testThetaWheel:
 138              	.LFB66:
  41:test.c        **** void testThetaWheel()
  42:test.c        **** {
 139              		.loc 1 42 0
 140              		.cfi_startproc
 141              		@ args = 0, pretend = 0, frame = 0
 142              		@ frame_needed = 1, uses_anonymous_args = 0
 143 0000 98B5     		push	{r3, r4, r7, lr}
 144              		.cfi_def_cfa_offset 16
 145              		.cfi_offset 3, -16
 146              		.cfi_offset 4, -12
 147              		.cfi_offset 7, -8
 148              		.cfi_offset 14, -4
 149 0002 00AF     		add	r7, sp, #0
 150              		.cfi_def_cfa_register 7
  43:test.c        ****     LCD_ClearDisplay();
 151              		.loc 1 43 0
 152 0004 0120     		movs	r0, #1
 153 0006 FFF7FEFF 		bl	LCD_WriteControl
  44:test.c        ****     LCD_PrintString("ThetaW: ");
 154              		.loc 1 44 0
 155 000a 1048     		ldr	r0, .L6
 156 000c FFF7FEFF 		bl	LCD_PrintString
  45:test.c        ****     printdouble(getValue(&thetaWheel),3);
 157              		.loc 1 45 0
 158 0010 0F48     		ldr	r0, .L6+4
 159 0012 FFF7FEFF 		bl	getValue
 160 0016 0346     		mov	r3, r0
 161 0018 0C46     		mov	r4, r1
 162 001a 0322     		movs	r2, #3
 163 001c 1846     		mov	r0, r3
 164 001e 2146     		mov	r1, r4
 165 0020 FFF7FEFF 		bl	printdouble
  46:test.c        ****     LCD_Position(1, 0);  //line feed
 166              		.loc 1 46 0
 167 0024 0021     		movs	r1, #0
 168 0026 0120     		movs	r0, #1
 169 0028 FFF7FEFF 		bl	LCD_Position
  47:test.c        ****     LCD_PrintString("OmegaW: ");
 170              		.loc 1 47 0
 171 002c 0948     		ldr	r0, .L6+8
 172 002e FFF7FEFF 		bl	LCD_PrintString
  48:test.c        ****     printdouble(getDerivative(&thetaWheel),3);       
ARM GAS  C:\Users\Albert\AppData\Local\Temp\ccTTlgdU.s 			page 5


 173              		.loc 1 48 0
 174 0032 0748     		ldr	r0, .L6+4
 175 0034 FFF7FEFF 		bl	getDerivative
 176 0038 0346     		mov	r3, r0
 177 003a 0C46     		mov	r4, r1
 178 003c 0322     		movs	r2, #3
 179 003e 1846     		mov	r0, r3
 180 0040 2146     		mov	r1, r4
 181 0042 FFF7FEFF 		bl	printdouble
  49:test.c        **** }
 182              		.loc 1 49 0
 183 0046 00BF     		nop
 184 0048 98BD     		pop	{r3, r4, r7, pc}
 185              	.L7:
 186 004a 00BF     		.align	2
 187              	.L6:
 188 004c 18000000 		.word	.LC2
 189 0050 00000000 		.word	thetaWheel
 190 0054 24000000 		.word	.LC3
 191              		.cfi_endproc
 192              	.LFE66:
 193              		.size	testThetaWheel, .-testThetaWheel
 194              		.section	.rodata
 195 002d 000000   		.align	2
 196              	.LC4:
 197 0030 54686574 		.ascii	"ThetaS: \000"
 197      61533A20 
 197      00
 198 0039 000000   		.align	2
 199              	.LC5:
 200 003c 4F6D6567 		.ascii	"OmegaS: \000"
 200      61533A20 
 200      00
 201              		.section	.text.testThetaShoulder,"ax",%progbits
 202              		.align	2
 203              		.global	testThetaShoulder
 204              		.thumb
 205              		.thumb_func
 206              		.type	testThetaShoulder, %function
 207              	testThetaShoulder:
 208              	.LFB67:
  50:test.c        **** void testThetaShoulder()
  51:test.c        **** {
 209              		.loc 1 51 0
 210              		.cfi_startproc
 211              		@ args = 0, pretend = 0, frame = 0
 212              		@ frame_needed = 1, uses_anonymous_args = 0
 213 0000 98B5     		push	{r3, r4, r7, lr}
 214              		.cfi_def_cfa_offset 16
 215              		.cfi_offset 3, -16
 216              		.cfi_offset 4, -12
 217              		.cfi_offset 7, -8
 218              		.cfi_offset 14, -4
 219 0002 00AF     		add	r7, sp, #0
 220              		.cfi_def_cfa_register 7
  52:test.c        ****     LCD_ClearDisplay();
 221              		.loc 1 52 0
ARM GAS  C:\Users\Albert\AppData\Local\Temp\ccTTlgdU.s 			page 6


 222 0004 0120     		movs	r0, #1
 223 0006 FFF7FEFF 		bl	LCD_WriteControl
  53:test.c        ****     LCD_PrintString("ThetaS: ");
 224              		.loc 1 53 0
 225 000a 1048     		ldr	r0, .L9
 226 000c FFF7FEFF 		bl	LCD_PrintString
  54:test.c        ****     printdouble(getValue(&thetaShoulder),3);
 227              		.loc 1 54 0
 228 0010 0F48     		ldr	r0, .L9+4
 229 0012 FFF7FEFF 		bl	getValue
 230 0016 0346     		mov	r3, r0
 231 0018 0C46     		mov	r4, r1
 232 001a 0322     		movs	r2, #3
 233 001c 1846     		mov	r0, r3
 234 001e 2146     		mov	r1, r4
 235 0020 FFF7FEFF 		bl	printdouble
  55:test.c        ****     LCD_Position(1, 0);  //line feed
 236              		.loc 1 55 0
 237 0024 0021     		movs	r1, #0
 238 0026 0120     		movs	r0, #1
 239 0028 FFF7FEFF 		bl	LCD_Position
  56:test.c        ****     LCD_PrintString("OmegaS: ");
 240              		.loc 1 56 0
 241 002c 0948     		ldr	r0, .L9+8
 242 002e FFF7FEFF 		bl	LCD_PrintString
  57:test.c        ****     printdouble(getDerivative(&thetaShoulder),3);       
 243              		.loc 1 57 0
 244 0032 0748     		ldr	r0, .L9+4
 245 0034 FFF7FEFF 		bl	getDerivative
 246 0038 0346     		mov	r3, r0
 247 003a 0C46     		mov	r4, r1
 248 003c 0322     		movs	r2, #3
 249 003e 1846     		mov	r0, r3
 250 0040 2146     		mov	r1, r4
 251 0042 FFF7FEFF 		bl	printdouble
  58:test.c        **** }
 252              		.loc 1 58 0
 253 0046 00BF     		nop
 254 0048 98BD     		pop	{r3, r4, r7, pc}
 255              	.L10:
 256 004a 00BF     		.align	2
 257              	.L9:
 258 004c 30000000 		.word	.LC4
 259 0050 00000000 		.word	thetaShoulder
 260 0054 3C000000 		.word	.LC5
 261              		.cfi_endproc
 262              	.LFE67:
 263              		.size	testThetaShoulder, .-testThetaShoulder
 264              		.section	.rodata
 265 0045 000000   		.align	2
 266              	.LC6:
 267 0048 41444320 		.ascii	"ADC \000"
 267      00
 268 004d 000000   		.align	2
 269              	.LC7:
 270 0050 3A2000   		.ascii	": \000"
 271              		.section	.text.testADC,"ax",%progbits
ARM GAS  C:\Users\Albert\AppData\Local\Temp\ccTTlgdU.s 			page 7


 272              		.align	2
 273              		.global	testADC
 274              		.thumb
 275              		.thumb_func
 276              		.type	testADC, %function
 277              	testADC:
 278              	.LFB68:
  59:test.c        **** void testADC()
  60:test.c        **** {
 279              		.loc 1 60 0
 280              		.cfi_startproc
 281              		@ args = 0, pretend = 0, frame = 0
 282              		@ frame_needed = 1, uses_anonymous_args = 0
 283 0000 80B5     		push	{r7, lr}
 284              		.cfi_def_cfa_offset 8
 285              		.cfi_offset 7, -8
 286              		.cfi_offset 14, -4
 287 0002 00AF     		add	r7, sp, #0
 288              		.cfi_def_cfa_register 7
  61:test.c        ****     LCD_ClearDisplay();
 289              		.loc 1 61 0
 290 0004 0120     		movs	r0, #1
 291 0006 FFF7FEFF 		bl	LCD_WriteControl
  62:test.c        ****     LCD_PrintString("ADC ");
 292              		.loc 1 62 0
 293 000a 0748     		ldr	r0, .L12
 294 000c FFF7FEFF 		bl	LCD_PrintString
  63:test.c        ****     LCD_PrintString(": ");
 295              		.loc 1 63 0
 296 0010 0648     		ldr	r0, .L12+4
 297 0012 FFF7FEFF 		bl	LCD_PrintString
  64:test.c        ****     LCD_PrintNumber(getADCReading());
 298              		.loc 1 64 0
 299 0016 FFF7FEFF 		bl	getADCReading
 300 001a 0346     		mov	r3, r0
 301 001c 9BB2     		uxth	r3, r3
 302 001e 1846     		mov	r0, r3
 303 0020 FFF7FEFF 		bl	LCD_PrintU32Number
  65:test.c        **** }
 304              		.loc 1 65 0
 305 0024 00BF     		nop
 306 0026 80BD     		pop	{r7, pc}
 307              	.L13:
 308              		.align	2
 309              	.L12:
 310 0028 48000000 		.word	.LC6
 311 002c 50000000 		.word	.LC7
 312              		.cfi_endproc
 313              	.LFE68:
 314              		.size	testADC, .-testADC
 315              		.section	.rodata
 316 0053 00       		.align	2
 317              	.LC8:
 318 0054 53656E64 		.ascii	"Sending \000"
 318      696E6720 
 318      00
 319 005d 000000   		.align	2
ARM GAS  C:\Users\Albert\AppData\Local\Temp\ccTTlgdU.s 			page 8


 320              	.LC9:
 321 0060 44697220 		.ascii	"Dir \000"
 321      00
 322              		.section	.text.testComm,"ax",%progbits
 323              		.align	2
 324              		.global	testComm
 325              		.thumb
 326              		.thumb_func
 327              		.type	testComm, %function
 328              	testComm:
 329              	.LFB69:
  66:test.c        **** void testComm()
  67:test.c        **** {
 330              		.loc 1 67 0
 331              		.cfi_startproc
 332              		@ args = 0, pretend = 0, frame = 8
 333              		@ frame_needed = 1, uses_anonymous_args = 0
 334 0000 80B5     		push	{r7, lr}
 335              		.cfi_def_cfa_offset 8
 336              		.cfi_offset 7, -8
 337              		.cfi_offset 14, -4
 338 0002 82B0     		sub	sp, sp, #8
 339              		.cfi_def_cfa_offset 16
 340 0004 00AF     		add	r7, sp, #0
 341              		.cfi_def_cfa_register 7
  68:test.c        ****     LCD_ClearDisplay();
 342              		.loc 1 68 0
 343 0006 0120     		movs	r0, #1
 344 0008 FFF7FEFF 		bl	LCD_WriteControl
  69:test.c        ****     LCD_PrintString("Sending ");
 345              		.loc 1 69 0
 346 000c 1C48     		ldr	r0, .L17
 347 000e FFF7FEFF 		bl	LCD_PrintString
  70:test.c        ****     int randNum = rand()%256;
 348              		.loc 1 70 0
 349 0012 FFF7FEFF 		bl	rand
 350 0016 0246     		mov	r2, r0
 351 0018 1A4B     		ldr	r3, .L17+4
 352 001a 1340     		ands	r3, r3, r2
 353 001c 002B     		cmp	r3, #0
 354 001e 03DA     		bge	.L15
 355 0020 013B     		subs	r3, r3, #1
 356 0022 63F0FF03 		orn	r3, r3, #255
 357 0026 0133     		adds	r3, r3, #1
 358              	.L15:
 359 0028 7B60     		str	r3, [r7, #4]
  71:test.c        ****     LCD_PrintNumber(randNum);
 360              		.loc 1 71 0
 361 002a 7B68     		ldr	r3, [r7, #4]
 362 002c 9BB2     		uxth	r3, r3
 363 002e 1846     		mov	r0, r3
 364 0030 FFF7FEFF 		bl	LCD_PrintU32Number
  72:test.c        ****     LCD_Position(1, 0);  //line feed
 365              		.loc 1 72 0
 366 0034 0021     		movs	r1, #0
 367 0036 0120     		movs	r0, #1
 368 0038 FFF7FEFF 		bl	LCD_Position
ARM GAS  C:\Users\Albert\AppData\Local\Temp\ccTTlgdU.s 			page 9


  73:test.c        ****     LCD_PrintString("Dir ");
 369              		.loc 1 73 0
 370 003c 1248     		ldr	r0, .L17+8
 371 003e FFF7FEFF 		bl	LCD_PrintString
  74:test.c        ****     int randDir = rand()%2;
 372              		.loc 1 74 0
 373 0042 FFF7FEFF 		bl	rand
 374 0046 0246     		mov	r2, r0
 375 0048 104B     		ldr	r3, .L17+12
 376 004a 1340     		ands	r3, r3, r2
 377 004c 002B     		cmp	r3, #0
 378 004e 03DA     		bge	.L16
 379 0050 013B     		subs	r3, r3, #1
 380 0052 63F00103 		orn	r3, r3, #1
 381 0056 0133     		adds	r3, r3, #1
 382              	.L16:
 383 0058 3B60     		str	r3, [r7]
  75:test.c        ****     LCD_PrintNumber(randDir);
 384              		.loc 1 75 0
 385 005a 3B68     		ldr	r3, [r7]
 386 005c 9BB2     		uxth	r3, r3
 387 005e 1846     		mov	r0, r3
 388 0060 FFF7FEFF 		bl	LCD_PrintU32Number
  76:test.c        ****     sendValue(randNum,randDir);
 389              		.loc 1 76 0
 390 0064 3B68     		ldr	r3, [r7]
 391 0066 002B     		cmp	r3, #0
 392 0068 14BF     		ite	ne
 393 006a 0123     		movne	r3, #1
 394 006c 0023     		moveq	r3, #0
 395 006e DBB2     		uxtb	r3, r3
 396 0070 1946     		mov	r1, r3
 397 0072 7868     		ldr	r0, [r7, #4]
 398 0074 FFF7FEFF 		bl	sendValue
  77:test.c        **** }
 399              		.loc 1 77 0
 400 0078 00BF     		nop
 401 007a 0837     		adds	r7, r7, #8
 402              		.cfi_def_cfa_offset 8
 403 007c BD46     		mov	sp, r7
 404              		.cfi_def_cfa_register 13
 405              		@ sp needed
 406 007e 80BD     		pop	{r7, pc}
 407              	.L18:
 408              		.align	2
 409              	.L17:
 410 0080 54000000 		.word	.LC8
 411 0084 FF000080 		.word	-2147483393
 412 0088 60000000 		.word	.LC9
 413 008c 01000080 		.word	-2147483647
 414              		.cfi_endproc
 415              	.LFE69:
 416              		.size	testComm, .-testComm
 417              		.section	.text.testPrintdouble,"ax",%progbits
 418              		.align	2
 419              		.global	testPrintdouble
 420              		.thumb
ARM GAS  C:\Users\Albert\AppData\Local\Temp\ccTTlgdU.s 			page 10


 421              		.thumb_func
 422              		.type	testPrintdouble, %function
 423              	testPrintdouble:
 424              	.LFB70:
  78:test.c        **** void testPrintdouble()
  79:test.c        **** {
 425              		.loc 1 79 0
 426              		.cfi_startproc
 427              		@ args = 0, pretend = 0, frame = 0
 428              		@ frame_needed = 1, uses_anonymous_args = 0
 429 0000 80B5     		push	{r7, lr}
 430              		.cfi_def_cfa_offset 8
 431              		.cfi_offset 7, -8
 432              		.cfi_offset 14, -4
 433 0002 00AF     		add	r7, sp, #0
 434              		.cfi_def_cfa_register 7
  80:test.c        ****     LCD_ClearDisplay();
 435              		.loc 1 80 0
 436 0004 0120     		movs	r0, #1
 437 0006 FFF7FEFF 		bl	LCD_WriteControl
  81:test.c        ****     printdouble(1.2346,3);
 438              		.loc 1 81 0
 439 000a 0322     		movs	r2, #3
 440 000c 08A1     		adr	r1, .L20
 441 000e D1E90001 		ldrd	r0, [r1]
 442 0012 FFF7FEFF 		bl	printdouble
  82:test.c        ****     LCD_Position(1, 0);  //line feed
 443              		.loc 1 82 0
 444 0016 0021     		movs	r1, #0
 445 0018 0120     		movs	r0, #1
 446 001a FFF7FEFF 		bl	LCD_Position
  83:test.c        ****     printdouble(-1.2344,3);
 447              		.loc 1 83 0
 448 001e 0322     		movs	r2, #3
 449 0020 05A1     		adr	r1, .L20+8
 450 0022 D1E90001 		ldrd	r0, [r1]
 451 0026 FFF7FEFF 		bl	printdouble
  84:test.c        **** }
 452              		.loc 1 84 0
 453 002a 00BF     		nop
 454 002c 80BD     		pop	{r7, pc}
 455              	.L21:
 456 002e 00BF     		.align	3
 457              	.L20:
 458 0030 FE43FAED 		.word	-302365698
 459 0034 EBC0F33F 		.word	1072939243
 460 0038 1CEBE236 		.word	920840988
 461 003c 1AC0F3BF 		.word	-1074544614
 462              		.cfi_endproc
 463              	.LFE70:
 464              		.size	testPrintdouble, .-testPrintdouble
 465              		.section	.rodata
 466 0065 000000   		.align	2
 467              	.LC10:
 468 0068 493A00   		.ascii	"I:\000"
 469              		.global	__aeabi_dmul
 470 006b 00       		.align	2
ARM GAS  C:\Users\Albert\AppData\Local\Temp\ccTTlgdU.s 			page 11


 471              	.LC11:
 472 006c 2C00     		.ascii	",\000"
 473              		.section	.text.testISensing,"ax",%progbits
 474              		.align	2
 475              		.global	testISensing
 476              		.thumb
 477              		.thumb_func
 478              		.type	testISensing, %function
 479              	testISensing:
 480              	.LFB71:
  85:test.c        **** void testISensing()
  86:test.c        **** {
 481              		.loc 1 86 0
 482              		.cfi_startproc
 483              		@ args = 0, pretend = 0, frame = 0
 484              		@ frame_needed = 1, uses_anonymous_args = 0
 485 0000 98B5     		push	{r3, r4, r7, lr}
 486              		.cfi_def_cfa_offset 16
 487              		.cfi_offset 3, -16
 488              		.cfi_offset 4, -12
 489              		.cfi_offset 7, -8
 490              		.cfi_offset 14, -4
 491 0002 00AF     		add	r7, sp, #0
 492              		.cfi_def_cfa_register 7
  87:test.c        ****     LCD_ClearDisplay();
 493              		.loc 1 87 0
 494 0004 0120     		movs	r0, #1
 495 0006 FFF7FEFF 		bl	LCD_WriteControl
  88:test.c        ****     sendValue(70,1);
 496              		.loc 1 88 0
 497 000a 0121     		movs	r1, #1
 498 000c 4620     		movs	r0, #70
 499 000e FFF7FEFF 		bl	sendValue
  89:test.c        ****     LCD_PrintString("I:");
 500              		.loc 1 89 0
 501 0012 1B48     		ldr	r0, .L23
 502 0014 FFF7FEFF 		bl	LCD_PrintString
  90:test.c        ****     printdouble(getCurrent()*1e3,0);
 503              		.loc 1 90 0
 504 0018 FFF7FEFF 		bl	getCurrent
 505 001c 4FF00002 		mov	r2, #0
 506 0020 184B     		ldr	r3, .L23+4
 507 0022 FFF7FEFF 		bl	__aeabi_dmul
 508 0026 0346     		mov	r3, r0
 509 0028 0C46     		mov	r4, r1
 510 002a 0022     		movs	r2, #0
 511 002c 1846     		mov	r0, r3
 512 002e 2146     		mov	r1, r4
 513 0030 FFF7FEFF 		bl	printdouble
  91:test.c        ****     LCD_Position(1, 0);  //line feed
 514              		.loc 1 91 0
 515 0034 0021     		movs	r1, #0
 516 0036 0120     		movs	r0, #1
 517 0038 FFF7FEFF 		bl	LCD_Position
  92:test.c        ****     printdouble(getADCReading(1),0);
 518              		.loc 1 92 0
 519 003c 0120     		movs	r0, #1
ARM GAS  C:\Users\Albert\AppData\Local\Temp\ccTTlgdU.s 			page 12


 520 003e FFF7FEFF 		bl	getADCReading
 521 0042 0346     		mov	r3, r0
 522 0044 1846     		mov	r0, r3
 523 0046 FFF7FEFF 		bl	__aeabi_i2d
 524 004a 0346     		mov	r3, r0
 525 004c 0C46     		mov	r4, r1
 526 004e 0022     		movs	r2, #0
 527 0050 1846     		mov	r0, r3
 528 0052 2146     		mov	r1, r4
 529 0054 FFF7FEFF 		bl	printdouble
  93:test.c        ****     LCD_PrintString(",");
 530              		.loc 1 93 0
 531 0058 0B48     		ldr	r0, .L23+8
 532 005a FFF7FEFF 		bl	LCD_PrintString
  94:test.c        ****     printdouble(getADCReading(2),0);
 533              		.loc 1 94 0
 534 005e 0220     		movs	r0, #2
 535 0060 FFF7FEFF 		bl	getADCReading
 536 0064 0346     		mov	r3, r0
 537 0066 1846     		mov	r0, r3
 538 0068 FFF7FEFF 		bl	__aeabi_i2d
 539 006c 0346     		mov	r3, r0
 540 006e 0C46     		mov	r4, r1
 541 0070 0022     		movs	r2, #0
 542 0072 1846     		mov	r0, r3
 543 0074 2146     		mov	r1, r4
 544 0076 FFF7FEFF 		bl	printdouble
  95:test.c        **** }
 545              		.loc 1 95 0
 546 007a 00BF     		nop
 547 007c 98BD     		pop	{r3, r4, r7, pc}
 548              	.L24:
 549 007e 00BF     		.align	2
 550              	.L23:
 551 0080 68000000 		.word	.LC10
 552 0084 00408F40 		.word	1083129856
 553 0088 6C000000 		.word	.LC11
 554              		.cfi_endproc
 555              	.LFE71:
 556              		.size	testISensing, .-testISensing
 557              		.section	.rodata
 558 006e 0000     		.align	2
 559              	.LC12:
 560 0070 4D656173 		.ascii	"Meas Tau:\000"
 560      20546175 
 560      3A00
 561 007a 0000     		.align	2
 562              	.LC13:
 563 007c 4F6D6567 		.ascii	"OmegaWheel:\000"
 563      61576865 
 563      656C3A00 
 564              		.section	.text.testTorqueController,"ax",%progbits
 565              		.align	2
 566              		.global	testTorqueController
 567              		.thumb
 568              		.thumb_func
 569              		.type	testTorqueController, %function
ARM GAS  C:\Users\Albert\AppData\Local\Temp\ccTTlgdU.s 			page 13


 570              	testTorqueController:
 571              	.LFB72:
  96:test.c        **** void testTorqueController()
  97:test.c        **** {    
 572              		.loc 1 97 0
 573              		.cfi_startproc
 574              		@ args = 0, pretend = 0, frame = 16
 575              		@ frame_needed = 1, uses_anonymous_args = 0
 576 0000 90B5     		push	{r4, r7, lr}
 577              		.cfi_def_cfa_offset 12
 578              		.cfi_offset 4, -12
 579              		.cfi_offset 7, -8
 580              		.cfi_offset 14, -4
 581 0002 85B0     		sub	sp, sp, #20
 582              		.cfi_def_cfa_offset 32
 583 0004 00AF     		add	r7, sp, #0
 584              		.cfi_def_cfa_register 7
  98:test.c        ****     //double goalTorque = fmod(rand(),1.8*MAX_TORQUE);
  99:test.c        ****     //goalTorque-=0.9*MAX_TORQUE;
 100:test.c        ****     //setTorque(randTorque,0);
 101:test.c        ****     double goalTorque = 0.02;
 585              		.loc 1 101 0
 586 0006 1EA4     		adr	r4, .L28
 587 0008 D4E90034 		ldrd	r3, [r4]
 588 000c C7E90034 		strd	r3, [r7]
 102:test.c        ****     int i=0;
 589              		.loc 1 102 0
 590 0010 0023     		movs	r3, #0
 591 0012 FB60     		str	r3, [r7, #12]
 592              	.L27:
 103:test.c        ****     while(1)
 104:test.c        ****     {
 105:test.c        ****         setTorque(goalTorque,1,1);
 593              		.loc 1 105 0
 594 0014 0123     		movs	r3, #1
 595 0016 0122     		movs	r2, #1
 596 0018 D7E90001 		ldrd	r0, [r7]
 597 001c FFF7FEFF 		bl	setTorque
 106:test.c        ****         i++;
 598              		.loc 1 106 0
 599 0020 FB68     		ldr	r3, [r7, #12]
 600 0022 0133     		adds	r3, r3, #1
 601 0024 FB60     		str	r3, [r7, #12]
 107:test.c        ****         if(i==1)
 602              		.loc 1 107 0
 603 0026 FB68     		ldr	r3, [r7, #12]
 604 0028 012B     		cmp	r3, #1
 605 002a F3D1     		bne	.L27
 108:test.c        ****         {
 109:test.c        ****             LCD_ClearDisplay();
 606              		.loc 1 109 0
 607 002c 0120     		movs	r0, #1
 608 002e FFF7FEFF 		bl	LCD_WriteControl
 110:test.c        ****             LCD_PrintString("Meas Tau:");
 609              		.loc 1 110 0
 610 0032 1548     		ldr	r0, .L28+8
 611 0034 FFF7FEFF 		bl	LCD_PrintString
ARM GAS  C:\Users\Albert\AppData\Local\Temp\ccTTlgdU.s 			page 14


 111:test.c        ****             printdouble(getValue(&torque)*1e3,3);
 612              		.loc 1 111 0
 613 0038 1448     		ldr	r0, .L28+12
 614 003a FFF7FEFF 		bl	getValue
 615 003e 4FF00002 		mov	r2, #0
 616 0042 134B     		ldr	r3, .L28+16
 617 0044 FFF7FEFF 		bl	__aeabi_dmul
 618 0048 0346     		mov	r3, r0
 619 004a 0C46     		mov	r4, r1
 620 004c 0322     		movs	r2, #3
 621 004e 1846     		mov	r0, r3
 622 0050 2146     		mov	r1, r4
 623 0052 FFF7FEFF 		bl	printdouble
 112:test.c        ****             LCD_Position(1, 0);  //line feed
 624              		.loc 1 112 0
 625 0056 0021     		movs	r1, #0
 626 0058 0120     		movs	r0, #1
 627 005a FFF7FEFF 		bl	LCD_Position
 113:test.c        ****             LCD_PrintString("OmegaWheel:");
 628              		.loc 1 113 0
 629 005e 0D48     		ldr	r0, .L28+20
 630 0060 FFF7FEFF 		bl	LCD_PrintString
 114:test.c        ****             printdouble(getDerivative(&thetaWheel),3);
 631              		.loc 1 114 0
 632 0064 0C48     		ldr	r0, .L28+24
 633 0066 FFF7FEFF 		bl	getDerivative
 634 006a 0346     		mov	r3, r0
 635 006c 0C46     		mov	r4, r1
 636 006e 0322     		movs	r2, #3
 637 0070 1846     		mov	r0, r3
 638 0072 2146     		mov	r1, r4
 639 0074 FFF7FEFF 		bl	printdouble
 115:test.c        ****             i=0;
 640              		.loc 1 115 0
 641 0078 0023     		movs	r3, #0
 642 007a FB60     		str	r3, [r7, #12]
 116:test.c        ****         }
 117:test.c        ****     }
 643              		.loc 1 117 0
 644 007c CAE7     		b	.L27
 645              	.L29:
 646 007e 00BF     		.align	3
 647              	.L28:
 648 0080 7B14AE47 		.word	1202590843
 649 0084 E17A943F 		.word	1066695393
 650 0088 70000000 		.word	.LC12
 651 008c 00000000 		.word	torque
 652 0090 00408F40 		.word	1083129856
 653 0094 7C000000 		.word	.LC13
 654 0098 00000000 		.word	thetaWheel
 655              		.cfi_endproc
 656              	.LFE72:
 657              		.size	testTorqueController, .-testTorqueController
 658              		.text
 659              	.Letext0:
 660              		.file 2 "c:\\program files (x86)\\cypress\\psoc creator\\4.2\\psoc creator\\import\\gnu\\arm\\5.4.
 661              		.file 3 "c:\\program files (x86)\\cypress\\psoc creator\\4.2\\psoc creator\\import\\gnu\\arm\\5.4.
ARM GAS  C:\Users\Albert\AppData\Local\Temp\ccTTlgdU.s 			page 15


 662              		.file 4 "Generated_Source\\PSoC5/cytypes.h"
 663              		.file 5 "sensorStructs.h"
 664              		.file 6 "Generated_Source\\PSoC5/core_cm3.h"