ARM GAS  C:\Users\Albert\AppData\Local\Temp\ccL0fMTa.s 			page 1


   1              		.syntax unified
   2              		.cpu cortex-m3
   3              		.fpu softvfp
   4              		.eabi_attribute 20, 1
   5              		.eabi_attribute 21, 1
   6              		.eabi_attribute 23, 3
   7              		.eabi_attribute 24, 1
   8              		.eabi_attribute 25, 1
   9              		.eabi_attribute 26, 1
  10              		.eabi_attribute 30, 6
  11              		.eabi_attribute 34, 1
  12              		.eabi_attribute 18, 4
  13              		.thumb
  14              		.syntax unified
  15              		.file	"uartUtil.c"
  16              		.text
  17              	.Ltext0:
  18              		.cfi_sections	.debug_frame
  19              		.section	.text.initUART,"ax",%progbits
  20              		.align	2
  21              		.global	initUART
  22              		.thumb
  23              		.thumb_func
  24              		.type	initUART, %function
  25              	initUART:
  26              	.LFB63:
  27              		.file 1 "uartUtil.c"
   1:uartUtil.c    **** /* ========================================
   2:uartUtil.c    ****  *
   3:uartUtil.c    ****  * Copyright YOUR COMPANY, THE YEAR
   4:uartUtil.c    ****  * All Rights Reserved
   5:uartUtil.c    ****  * UNPUBLISHED, LICENSED SOFTWARE.
   6:uartUtil.c    ****  *
   7:uartUtil.c    ****  * CONFIDENTIAL AND PROPRIETARY INFORMATION
   8:uartUtil.c    ****  * WHICH IS THE PROPERTY OF your company.
   9:uartUtil.c    ****  *
  10:uartUtil.c    ****  * ========================================
  11:uartUtil.c    **** */
  12:uartUtil.c    **** 
  13:uartUtil.c    **** extern _Bool enableMotor;
  14:uartUtil.c    **** #include "uartUtil.h"
  15:uartUtil.c    **** 
  16:uartUtil.c    **** void initUART()
  17:uartUtil.c    **** {
  28              		.loc 1 17 0
  29              		.cfi_startproc
  30              		@ args = 0, pretend = 0, frame = 0
  31              		@ frame_needed = 1, uses_anonymous_args = 0
  32 0000 80B5     		push	{r7, lr}
  33              		.cfi_def_cfa_offset 8
  34              		.cfi_offset 7, -8
  35              		.cfi_offset 14, -4
  36 0002 00AF     		add	r7, sp, #0
  37              		.cfi_def_cfa_register 7
  18:uartUtil.c    ****     UART_Start();
  38              		.loc 1 18 0
  39 0004 FFF7FEFF 		bl	UART_Start
ARM GAS  C:\Users\Albert\AppData\Local\Temp\ccL0fMTa.s 			page 2


  19:uartUtil.c    **** }
  40              		.loc 1 19 0
  41 0008 00BF     		nop
  42 000a 80BD     		pop	{r7, pc}
  43              		.cfi_endproc
  44              	.LFE63:
  45              		.size	initUART, .-initUART
  46              		.section	.rodata
  47              		.align	2
  48              	.LC0:
  49 0000 25303364 		.ascii	"%03d\000"
  49      00
  50              		.global	__aeabi_i2d
  51              		.global	__aeabi_d2iz
  52              		.section	.text.sendValue,"ax",%progbits
  53              		.align	2
  54              		.global	sendValue
  55              		.thumb
  56              		.thumb_func
  57              		.type	sendValue, %function
  58              	sendValue:
  59              	.LFB64:
  20:uartUtil.c    **** 
  21:uartUtil.c    **** void sendValue(int value, _Bool direction)
  22:uartUtil.c    **** {
  60              		.loc 1 22 0
  61              		.cfi_startproc
  62              		@ args = 0, pretend = 0, frame = 8
  63              		@ frame_needed = 1, uses_anonymous_args = 0
  64 0000 90B5     		push	{r4, r7, lr}
  65              		.cfi_def_cfa_offset 12
  66              		.cfi_offset 4, -12
  67              		.cfi_offset 7, -8
  68              		.cfi_offset 14, -4
  69 0002 83B0     		sub	sp, sp, #12
  70              		.cfi_def_cfa_offset 24
  71 0004 00AF     		add	r7, sp, #0
  72              		.cfi_def_cfa_register 7
  73 0006 7860     		str	r0, [r7, #4]
  74 0008 0B46     		mov	r3, r1
  75 000a FB70     		strb	r3, [r7, #3]
  23:uartUtil.c    ****     if(!enableMotor)
  76              		.loc 1 23 0
  77 000c 1E4B     		ldr	r3, .L5+8
  78 000e 1B78     		ldrb	r3, [r3]	@ zero_extendqisi2
  79 0010 83F00103 		eor	r3, r3, #1
  80 0014 DBB2     		uxtb	r3, r3
  81 0016 002B     		cmp	r3, #0
  82 0018 0BD0     		beq	.L3
  83              	.LBB2:
  24:uartUtil.c    ****     {
  25:uartUtil.c    ****         UART_PutChar(0);
  84              		.loc 1 25 0
  85 001a 0020     		movs	r0, #0
  86 001c FFF7FEFF 		bl	UART_PutChar
  26:uartUtil.c    ****         static char hex[3];
  27:uartUtil.c    ****         sprintf(hex, "%03d", 0);
ARM GAS  C:\Users\Albert\AppData\Local\Temp\ccL0fMTa.s 			page 3


  87              		.loc 1 27 0
  88 0020 0022     		movs	r2, #0
  89 0022 1A49     		ldr	r1, .L5+12
  90 0024 1A48     		ldr	r0, .L5+16
  91 0026 FFF7FEFF 		bl	sprintf
  28:uartUtil.c    ****         UART_PutString(hex);
  92              		.loc 1 28 0
  93 002a 1948     		ldr	r0, .L5+16
  94 002c FFF7FEFF 		bl	UART_PutString
  29:uartUtil.c    ****         return;
  95              		.loc 1 29 0
  96 0030 21E0     		b	.L2
  97              	.L3:
  98              	.LBE2:
  30:uartUtil.c    ****     }
  31:uartUtil.c    ****     //Sends a value between 0~255 with direction
  32:uartUtil.c    ****     UART_PutChar(direction);
  99              		.loc 1 32 0
 100 0032 FB78     		ldrb	r3, [r7, #3]	@ zero_extendqisi2
 101 0034 1846     		mov	r0, r3
 102 0036 FFF7FEFF 		bl	UART_PutChar
  33:uartUtil.c    ****     //convert value to hex and send
  34:uartUtil.c    ****     value = min(max(value,1),255);  //cap in range
 103              		.loc 1 34 0
 104 003a 7868     		ldr	r0, [r7, #4]
 105 003c FFF7FEFF 		bl	__aeabi_i2d
 106 0040 4FF00002 		mov	r2, #0
 107 0044 134B     		ldr	r3, .L5+20
 108 0046 FFF7FEFF 		bl	max
 109 004a 0DA3     		adr	r3, .L5
 110 004c D3E90023 		ldrd	r2, [r3]
 111 0050 FFF7FEFF 		bl	min
 112 0054 0346     		mov	r3, r0
 113 0056 0C46     		mov	r4, r1
 114 0058 1846     		mov	r0, r3
 115 005a 2146     		mov	r1, r4
 116 005c FFF7FEFF 		bl	__aeabi_d2iz
 117 0060 0346     		mov	r3, r0
 118 0062 7B60     		str	r3, [r7, #4]
  35:uartUtil.c    ****     static char hex[3];
  36:uartUtil.c    ****     sprintf(hex, "%03d", value);
 119              		.loc 1 36 0
 120 0064 7A68     		ldr	r2, [r7, #4]
 121 0066 0949     		ldr	r1, .L5+12
 122 0068 0B48     		ldr	r0, .L5+24
 123 006a FFF7FEFF 		bl	sprintf
  37:uartUtil.c    ****     UART_PutString(hex);
 124              		.loc 1 37 0
 125 006e 0A48     		ldr	r0, .L5+24
 126 0070 FFF7FEFF 		bl	UART_PutString
  38:uartUtil.c    ****     return;
 127              		.loc 1 38 0
 128 0074 00BF     		nop
 129              	.L2:
  39:uartUtil.c    **** }
 130              		.loc 1 39 0
 131 0076 0C37     		adds	r7, r7, #12
ARM GAS  C:\Users\Albert\AppData\Local\Temp\ccL0fMTa.s 			page 4


 132              		.cfi_def_cfa_offset 12
 133 0078 BD46     		mov	sp, r7
 134              		.cfi_def_cfa_register 13
 135              		@ sp needed
 136 007a 90BD     		pop	{r4, r7, pc}
 137              	.L6:
 138 007c AFF30080 		.align	3
 139              	.L5:
 140 0080 00000000 		.word	0
 141 0084 00E06F40 		.word	1081073664
 142 0088 00000000 		.word	enableMotor
 143 008c 00000000 		.word	.LC0
 144 0090 00000000 		.word	hex.6885
 145 0094 0000F03F 		.word	1072693248
 146 0098 04000000 		.word	hex.6887
 147              		.cfi_endproc
 148              	.LFE64:
 149              		.size	sendValue, .-sendValue
 150              		.bss
 151              		.align	2
 152              	hex.6885:
 153 0000 000000   		.space	3
 154 0003 00       		.align	2
 155              	hex.6887:
 156 0004 000000   		.space	3
 157              		.text
 158              	.Letext0:
 159              		.file 2 "c:\\program files (x86)\\cypress\\psoc creator\\4.2\\psoc creator\\import\\gnu\\arm\\5.4.
 160              		.file 3 "c:\\program files (x86)\\cypress\\psoc creator\\4.2\\psoc creator\\import\\gnu\\arm\\5.4.
 161              		.file 4 "Generated_Source\\PSoC5/core_cm3.h"
 162              		.file 5 "<built-in>"