ARM GAS  C:\Users\student\AppData\Local\Temp\ccXBe0WC.s 			page 1


   1              		.syntax unified
   2              		.cpu cortex-m3
   3              		.fpu softvfp
   4              		.eabi_attribute 20, 1
   5              		.eabi_attribute 21, 1
   6              		.eabi_attribute 23, 3
   7              		.eabi_attribute 24, 1
   8              		.eabi_attribute 25, 1
   9              		.eabi_attribute 26, 1
  10              		.eabi_attribute 30, 6
  11              		.eabi_attribute 34, 1
  12              		.eabi_attribute 18, 4
  13              		.thumb
  14              		.file	"adc.c"
  15              		.text
  16              	.Ltext0:
  17              		.cfi_sections	.debug_frame
  18              		.section	.text.initADC,"ax",%progbits
  19              		.align	2
  20              		.global	initADC
  21              		.thumb
  22              		.thumb_func
  23              		.type	initADC, %function
  24              	initADC:
  25              	.LFB63:
  26              		.file 1 ".\\adc.c"
   1:.\adc.c       **** /* ========================================
   2:.\adc.c       ****  *
   3:.\adc.c       ****  * Copyright Albert Wu, 2018
   4:.\adc.c       ****  * All Rights Reserved
   5:.\adc.c       ****  * UNPUBLISHED, LICENSED SOFTWARE.
   6:.\adc.c       ****  *
   7:.\adc.c       ****  * CONFIDENTIAL AND PROPRIETARY INFORMATION
   8:.\adc.c       ****  * WHICH IS THE PROPERTY OF your company.
   9:.\adc.c       ****  *
  10:.\adc.c       ****  * ========================================
  11:.\adc.c       **** */
  12:.\adc.c       **** #include "adc.h"
  13:.\adc.c       **** 
  14:.\adc.c       **** void initADC()
  15:.\adc.c       **** {
  27              		.loc 1 15 0
  28              		.cfi_startproc
  29              		@ args = 0, pretend = 0, frame = 0
  30              		@ frame_needed = 1, uses_anonymous_args = 0
  31 0000 80B5     		push	{r7, lr}
  32              		.cfi_def_cfa_offset 8
  33              		.cfi_offset 7, -8
  34              		.cfi_offset 14, -4
  35 0002 00AF     		add	r7, sp, #0
  36              		.cfi_def_cfa_register 7
  16:.\adc.c       ****     //Initalizes ADCs
  17:.\adc.c       ****     ADC1_Start();
  37              		.loc 1 17 0
  38 0004 FFF7FEFF 		bl	ADC1_Start
  18:.\adc.c       ****     ADC2_Start();
  39              		.loc 1 18 0
ARM GAS  C:\Users\student\AppData\Local\Temp\ccXBe0WC.s 			page 2


  40 0008 FFF7FEFF 		bl	ADC2_Start
  19:.\adc.c       **** }
  41              		.loc 1 19 0
  42 000c 80BD     		pop	{r7, pc}
  43              		.cfi_endproc
  44              	.LFE63:
  45              		.size	initADC, .-initADC
  46 000e 00BF     		.section	.text.getADCReading,"ax",%progbits
  47              		.align	2
  48              		.global	getADCReading
  49              		.thumb
  50              		.thumb_func
  51              		.type	getADCReading, %function
  52              	getADCReading:
  53              	.LFB64:
  20:.\adc.c       **** int16 getADCReading(int adcID)
  21:.\adc.c       **** {
  54              		.loc 1 21 0
  55              		.cfi_startproc
  56              		@ args = 0, pretend = 0, frame = 8
  57              		@ frame_needed = 1, uses_anonymous_args = 0
  58 0000 80B5     		push	{r7, lr}
  59              		.cfi_def_cfa_offset 8
  60              		.cfi_offset 7, -8
  61              		.cfi_offset 14, -4
  62 0002 82B0     		sub	sp, sp, #8
  63              		.cfi_def_cfa_offset 16
  64 0004 00AF     		add	r7, sp, #0
  65              		.cfi_def_cfa_register 7
  66 0006 7860     		str	r0, [r7, #4]
  22:.\adc.c       ****     switch(adcID)
  67              		.loc 1 22 0
  68 0008 7B68     		ldr	r3, [r7, #4]
  69 000a 012B     		cmp	r3, #1
  70 000c 02D0     		beq	.L4
  71 000e 022B     		cmp	r3, #2
  72 0010 09D0     		beq	.L5
  73 0012 11E0     		b	.L7
  74              	.L4:
  23:.\adc.c       ****     {
  24:.\adc.c       ****         case 1:        
  25:.\adc.c       ****             ADC1_StartConvert();                          //start conversion
  75              		.loc 1 25 0
  76 0014 FFF7FEFF 		bl	ADC1_StartConvert
  26:.\adc.c       ****             ADC1_IsEndConversion(ADC1_WAIT_FOR_RESULT);   //wait for finish
  77              		.loc 1 26 0
  78 0018 0020     		movs	r0, #0
  79 001a FFF7FEFF 		bl	ADC1_IsEndConversion
  27:.\adc.c       ****             return ADC1_GetResult16();
  80              		.loc 1 27 0
  81 001e FFF7FEFF 		bl	ADC1_GetResult16
  82 0022 0346     		mov	r3, r0
  83 0024 09E0     		b	.L6
  84              	.L5:
  28:.\adc.c       ****             break;
  29:.\adc.c       ****             
  30:.\adc.c       ****         case 2:
ARM GAS  C:\Users\student\AppData\Local\Temp\ccXBe0WC.s 			page 3


  31:.\adc.c       ****             ADC2_StartConvert();                        //start conversion
  85              		.loc 1 31 0
  86 0026 FFF7FEFF 		bl	ADC2_StartConvert
  32:.\adc.c       ****             ADC2_IsEndConversion(ADC2_WAIT_FOR_RESULT);   //wait for finish
  87              		.loc 1 32 0
  88 002a 0020     		movs	r0, #0
  89 002c FFF7FEFF 		bl	ADC2_IsEndConversion
  33:.\adc.c       ****             return ADC2_GetResult16();         
  90              		.loc 1 33 0
  91 0030 FFF7FEFF 		bl	ADC2_GetResult16
  92 0034 0346     		mov	r3, r0
  93 0036 00E0     		b	.L6
  94              	.L7:
  34:.\adc.c       ****             break;
  35:.\adc.c       ****     }
  36:.\adc.c       ****     return 0;
  95              		.loc 1 36 0
  96 0038 0023     		movs	r3, #0
  97              	.L6:
  98 003a 1BB2     		sxth	r3, r3
  37:.\adc.c       **** }
  99              		.loc 1 37 0
 100 003c 1846     		mov	r0, r3
 101 003e 0837     		adds	r7, r7, #8
 102              		.cfi_def_cfa_offset 8
 103 0040 BD46     		mov	sp, r7
 104              		.cfi_def_cfa_register 13
 105              		@ sp needed
 106 0042 80BD     		pop	{r7, pc}
 107              		.cfi_endproc
 108              	.LFE64:
 109              		.size	getADCReading, .-getADCReading
 110              		.text
 111              	.Letext0:
 112              		.file 2 "c:\\program files (x86)\\cypress\\psoc creator\\3.3\\psoc creator\\import\\gnu\\arm\\4.9.
 113              		.file 3 "c:\\program files (x86)\\cypress\\psoc creator\\3.3\\psoc creator\\import\\gnu\\arm\\4.9.
 114              		.file 4 "Generated_Source\\PSoC5/cytypes.h"
 115              		.file 5 "Generated_Source\\PSoC5/core_cm3.h"