ARM GAS  C:\Users\student\AppData\Local\Temp\cc7CApAJ.s 			page 1


   1              		.syntax unified
   2              		.cpu cortex-m3
   3              		.fpu softvfp
   4              		.eabi_attribute 20, 1
   5              		.eabi_attribute 21, 1
   6              		.eabi_attribute 23, 3
   7              		.eabi_attribute 24, 1
   8              		.eabi_attribute 25, 1
   9              		.eabi_attribute 26, 1
  10              		.eabi_attribute 30, 6
  11              		.eabi_attribute 34, 1
  12              		.eabi_attribute 18, 4
  13              		.thumb
  14              		.file	"quadDec.c"
  15              		.text
  16              	.Ltext0:
  17              		.cfi_sections	.debug_frame
  18              		.section	.text.initQuadDec,"ax",%progbits
  19              		.align	2
  20              		.global	initQuadDec
  21              		.thumb
  22              		.thumb_func
  23              		.type	initQuadDec, %function
  24              	initQuadDec:
  25              	.LFB63:
  26              		.file 1 ".\\quadDec.c"
   1:.\quadDec.c   **** /* ========================================
   2:.\quadDec.c   ****  *
   3:.\quadDec.c   ****  * Copyright Albert Wu, 2018
   4:.\quadDec.c   ****  * All Rights Reserved
   5:.\quadDec.c   ****  * UNPUBLISHED, LICENSED SOFTWARE.
   6:.\quadDec.c   ****  *
   7:.\quadDec.c   ****  * CONFIDENTIAL AND PROPRIETARY INFORMATION
   8:.\quadDec.c   ****  * WHICH IS THE PROPERTY OF your company.
   9:.\quadDec.c   ****  *
  10:.\quadDec.c   ****  * ========================================
  11:.\quadDec.c   **** */
  12:.\quadDec.c   **** #include "quadDec.h"
  13:.\quadDec.c   **** 
  14:.\quadDec.c   **** void initQuadDec()
  15:.\quadDec.c   **** {
  27              		.loc 1 15 0
  28              		.cfi_startproc
  29              		@ args = 0, pretend = 0, frame = 0
  30              		@ frame_needed = 1, uses_anonymous_args = 0
  31 0000 80B5     		push	{r7, lr}
  32              		.cfi_def_cfa_offset 8
  33              		.cfi_offset 7, -8
  34              		.cfi_offset 14, -4
  35 0002 00AF     		add	r7, sp, #0
  36              		.cfi_def_cfa_register 7
  16:.\quadDec.c   ****     QuadDec_Motor_Start();
  37              		.loc 1 16 0
  38 0004 FFF7FEFF 		bl	QuadDec_Motor_Start
  17:.\quadDec.c   ****     QuadDec_Shoulder_Start();
  39              		.loc 1 17 0
  40 0008 FFF7FEFF 		bl	QuadDec_Shoulder_Start
ARM GAS  C:\Users\student\AppData\Local\Temp\cc7CApAJ.s 			page 2


  18:.\quadDec.c   ****     
  19:.\quadDec.c   ****     //Zero the decoders
  20:.\quadDec.c   ****     QuadDec_Motor_SetCounter(0);
  41              		.loc 1 20 0
  42 000c 0020     		movs	r0, #0
  43 000e FFF7FEFF 		bl	QuadDec_Motor_SetCounter
  21:.\quadDec.c   ****     QuadDec_Shoulder_SetCounter(0);
  44              		.loc 1 21 0
  45 0012 0020     		movs	r0, #0
  46 0014 FFF7FEFF 		bl	QuadDec_Shoulder_SetCounter
  22:.\quadDec.c   **** }
  47              		.loc 1 22 0
  48 0018 80BD     		pop	{r7, pc}
  49              		.cfi_endproc
  50              	.LFE63:
  51              		.size	initQuadDec, .-initQuadDec
  52 001a 00BF     		.section	.text.getMotorDecReading,"ax",%progbits
  53              		.align	2
  54              		.global	getMotorDecReading
  55              		.thumb
  56              		.thumb_func
  57              		.type	getMotorDecReading, %function
  58              	getMotorDecReading:
  59              	.LFB64:
  23:.\quadDec.c   **** 
  24:.\quadDec.c   **** int16 getMotorDecReading()
  25:.\quadDec.c   **** {
  60              		.loc 1 25 0
  61              		.cfi_startproc
  62              		@ args = 0, pretend = 0, frame = 0
  63              		@ frame_needed = 1, uses_anonymous_args = 0
  64 0000 80B5     		push	{r7, lr}
  65              		.cfi_def_cfa_offset 8
  66              		.cfi_offset 7, -8
  67              		.cfi_offset 14, -4
  68 0002 00AF     		add	r7, sp, #0
  69              		.cfi_def_cfa_register 7
  26:.\quadDec.c   ****     return QuadDec_Motor_GetCounter();
  70              		.loc 1 26 0
  71 0004 FFF7FEFF 		bl	QuadDec_Motor_GetCounter
  72 0008 0346     		mov	r3, r0
  73 000a 9BB2     		uxth	r3, r3
  74 000c 1BB2     		sxth	r3, r3
  27:.\quadDec.c   **** }
  75              		.loc 1 27 0
  76 000e 1846     		mov	r0, r3
  77 0010 80BD     		pop	{r7, pc}
  78              		.cfi_endproc
  79              	.LFE64:
  80              		.size	getMotorDecReading, .-getMotorDecReading
  81 0012 00BF     		.section	.text.getShoulderDecReading,"ax",%progbits
  82              		.align	2
  83              		.global	getShoulderDecReading
  84              		.thumb
  85              		.thumb_func
  86              		.type	getShoulderDecReading, %function
  87              	getShoulderDecReading:
ARM GAS  C:\Users\student\AppData\Local\Temp\cc7CApAJ.s 			page 3


  88              	.LFB65:
  28:.\quadDec.c   **** int16 getShoulderDecReading()
  29:.\quadDec.c   **** {
  89              		.loc 1 29 0
  90              		.cfi_startproc
  91              		@ args = 0, pretend = 0, frame = 0
  92              		@ frame_needed = 1, uses_anonymous_args = 0
  93 0000 80B5     		push	{r7, lr}
  94              		.cfi_def_cfa_offset 8
  95              		.cfi_offset 7, -8
  96              		.cfi_offset 14, -4
  97 0002 00AF     		add	r7, sp, #0
  98              		.cfi_def_cfa_register 7
  30:.\quadDec.c   ****     return QuadDec_Shoulder_GetCounter();
  99              		.loc 1 30 0
 100 0004 FFF7FEFF 		bl	QuadDec_Shoulder_GetCounter
 101 0008 0346     		mov	r3, r0
  31:.\quadDec.c   **** }
 102              		.loc 1 31 0
 103 000a 1846     		mov	r0, r3
 104 000c 80BD     		pop	{r7, pc}
 105              		.cfi_endproc
 106              	.LFE65:
 107              		.size	getShoulderDecReading, .-getShoulderDecReading
 108 000e 00BF     		.text
 109              	.Letext0:
 110              		.file 2 "c:\\program files (x86)\\cypress\\psoc creator\\3.3\\psoc creator\\import\\gnu\\arm\\4.9.
 111              		.file 3 "c:\\program files (x86)\\cypress\\psoc creator\\3.3\\psoc creator\\import\\gnu\\arm\\4.9.
 112              		.file 4 "Generated_Source\\PSoC5/cytypes.h"
 113              		.file 5 "Generated_Source\\PSoC5/core_cm3.h"